Certificate:
    Data:
        Version: 3 (0x2)
        Serial Number: 384 (0x180)
        Signature Algorithm: sha1WithRSAEncryption
        Issuer: C=UG, L=Tropic, O=http://slash.slash.edu:7656/testing, OU=Relaxation, CN=the slash CA
        Validity
            Not Before: Feb  9 18:48:31 2012 GMT
            Not After : Oct 18 18:48:31 2025 GMT
        Subject: C=UG, L=Tropic, O=http://slash.slash.edu:7656/testing, OU=Relaxation, CN=slash client slash
        Subject Public Key Info:
            Public Key Algorithm: rsaEncryption
                Public-Key: (1024 bit)
                Modulus:
                    00:b8:d5:97:59:e0:ec:00:2d:73:be:d6:8e:1f:84:
                    c5:99:91:53:c3:1b:62:77:ac:aa:e7:8b:41:4c:ae:
                    7a:1a:09:c1:35:f6:38:e4:8a:0d:cb:ff:7f:4b:7b:
                    61:c1:fb:fc:a0:b4:26:fe:95:44:bc:73:94:11:94:
                    52:a2:0b:35:57:3c:6f:b8:e4:4a:bc:1b:9d:30:ea:
                    c4:fc:98:94:d1:6e:c8:26:e1:58:17:97:65:83:f4:
                    07:5c:85:0b:74:77:ff:4b:9e:49:bf:d4:d1:24:95:
                    81:b5:2c:d8:a8:5d:c3:64:8b:5d:b0:28:22:12:89:
                    b5:af:04:b9:f7:39:58:2f:8b
                Exponent: 65537 (0x10001)
        X509v3 extensions:
            X509v3 Basic Constraints: 
                CA:FALSE
            X509v3 Key Usage: critical
                Digital Signature, Non Repudiation, Key Encipherment
            Netscape Cert Type: 
                SSL Client, S/MIME
            Netscape Comment: 
                OpenSSL Generated Client Certificate
    Signature Algorithm: sha1WithRSAEncryption
        95:5e:16:3f:83:7a:2d:d5:86:e2:6f:a0:cb:e3:66:fd:3c:1e:
        85:89:53:84:c7:15:56:10:c1:5a:f3:a0:d3:53:0f:d3:12:96:
        38:6d:cc:aa:6e:a1:80:b3:a8:a1:d7:81:f4:2b:18:fb:bc:01:
        e8:1e:e8:74:cf:71:97:d8:75:ae:55:42:ba:f8:7e:92:47:34:
        1e:9d:ba:e2:a1:17:b7:c2:02:48:4f:6e:da:49:c0:8a:9b:6a:
        f7:26:d3:bf:bf:a1:89:2c:49:27:57:3a:8f:9b:42:0e:0c:8d:
        0c:d9:1f:33:01:4e:8f:bf:fb:ff:c1:0b:d5:e9:39:5c:ac:db:
        bf:6f
-----BEGIN CERTIFICATE-----
MIIC0jCCAjugAwIBAgICAYAwDQYJKoZIhvcNAQEFBQAweDELMAkGA1UEBhMCVUcx
DzANBgNVBAcTBlRyb3BpYzEsMCoGA1UEChMjaHR0cDovL3NsYXNoLnNsYXNoLmVk
dTo3NjU2L3Rlc3RpbmcxEzARBgNVBAsTClJlbGF4YXRpb24xFTATBgNVBAMTDHRo
ZSBzbGFzaCBDQTAeFw0xMjAyMDkxODQ4MzFaFw0yNTEwMTgxODQ4MzFaMH4xCzAJ
BgNVBAYTAlVHMQ8wDQYDVQQHEwZUcm9waWMxLDAqBgNVBAoTI2h0dHA6Ly9zbGFz
aC5zbGFzaC5lZHU6NzY1Ni90ZXN0aW5nMRMwEQYDVQQLEwpSZWxheGF0aW9uMRsw
GQYDVQQDExJzbGFzaCBjbGllbnQgc2xhc2gwgZ8wDQYJKoZIhvcNAQEBBQADgY0A
MIGJAoGBALjVl1ng7AAtc77Wjh+ExZmRU8MbYnesqueLQUyuehoJwTX2OOSKDcv/
f0t7YcH7/KC0Jv6VRLxzlBGUUqILNVc8b7jkSrwbnTDqxPyYlNFuyCbhWBeXZYP0
B1yFC3R3/0ueSb/U0SSVgbUs2Khdw2SLXbAoIhKJta8Eufc5WC+LAgMBAAGjZTBj
MAkGA1UdEwQCMAAwDgYDVR0PAQH/BAQDAgXgMBEGCWCGSAGG+EIBAQQEAwIFoDAz
BglghkgBhvhCAQ0EJhYkT3BlblNTTCBHZW5lcmF0ZWQgQ2xpZW50IENlcnRpZmlj
YXRlMA0GCSqGSIb3DQEBBQUAA4GBAJVeFj+Dei3VhuJvoMvjZv08HoWJU4THFVYQ
wVrzoNNTD9MSljhtzKpuoYCzqKHXgfQrGPu8Aege6HTPcZfYda5VQrr4fpJHNB6d
uuKhF7fCAkhPbtpJwIqbavcm07+/oYksSSdXOo+bQg4MjQzZHzMBTo+/+//BC9Xp
OVys279v
-----END CERTIFICATE-----
