Certificate:
    Data:
        Version: 3 (0x2)
        Serial Number: 376 (0x178)
        Signature Algorithm: sha224WithRSAEncryption
        Issuer: C=UG, L=Tropic, O=http://slash.slash.edu:7656/testing, OU=Relaxation, CN=the slash CA
        Validity
            Not Before: Feb  9 18:48:29 2012 GMT
            Not After : Oct 18 18:48:29 2025 GMT
        Subject: C=UG, L=Tropic, O=Utopia, OU=Relaxation, CN=slash client with sha224 hash
        Subject Public Key Info:
            Public Key Algorithm: rsaEncryption
                Public-Key: (1024 bit)
                Modulus:
                    00:ca:03:8e:17:27:3f:b7:07:30:b9:c2:3c:08:fa:
                    4d:ef:93:c0:16:cb:84:21:2c:07:b8:3a:4b:64:d8:
                    18:65:b1:c5:03:cc:a2:2d:2f:ec:11:d9:62:b7:35:
                    28:a8:c6:f2:2a:fd:c0:9d:c5:35:de:ed:09:25:ea:
                    db:11:62:4f:26:63:f2:33:22:41:57:57:71:e1:de:
                    13:9b:92:b1:53:f1:60:54:4b:ca:96:73:bb:aa:fd:
                    8c:66:56:f3:b8:7d:f1:52:ff:f0:0d:6f:3d:a6:85:
                    12:bd:45:e1:72:c3:e8:7a:f3:8f:b2:a0:9a:64:59:
                    09:05:b3:00:a1:ff:b3:68:ab
                Exponent: 65537 (0x10001)
        X509v3 extensions:
            X509v3 Basic Constraints: 
                CA:FALSE
            X509v3 Key Usage: critical
                Digital Signature, Non Repudiation, Key Encipherment
            Netscape Cert Type: 
                SSL Client, S/MIME
            Netscape Comment: 
                OpenSSL Generated Client Certificate
    Signature Algorithm: sha224WithRSAEncryption
        a7:1d:a5:9c:a9:c0:fd:2b:fa:c6:99:08:a4:97:15:15:46:8f:
        4f:5d:13:70:db:60:0f:e0:1b:0a:74:e0:71:3d:04:60:9c:a8:
        d9:8b:bf:c1:a2:74:c4:8c:b4:cd:76:f9:56:08:49:29:59:0d:
        89:88:88:3f:72:00:b6:05:90:23:b0:c2:f3:c9:b9:ed:fb:7e:
        91:fa:1b:92:24:9a:42:44:90:cd:b7:c0:4b:23:76:6a:67:01:
        69:d4:6b:c6:57:b7:44:16:4a:71:05:ca:f0:b3:bf:04:68:9c:
        71:cd:fb:9e:eb:c5:d9:ea:33:07:0a:03:a5:df:3d:3d:ac:a6:
        a4:a1
-----BEGIN CERTIFICATE-----
MIICwDCCAimgAwIBAgICAXgwDQYJKoZIhvcNAQEOBQAweDELMAkGA1UEBhMCVUcx
DzANBgNVBAcTBlRyb3BpYzEsMCoGA1UEChMjaHR0cDovL3NsYXNoLnNsYXNoLmVk
dTo3NjU2L3Rlc3RpbmcxEzARBgNVBAsTClJlbGF4YXRpb24xFTATBgNVBAMTDHRo
ZSBzbGFzaCBDQTAeFw0xMjAyMDkxODQ4MjlaFw0yNTEwMTgxODQ4MjlaMGwxCzAJ
BgNVBAYTAlVHMQ8wDQYDVQQHEwZUcm9waWMxDzANBgNVBAoTBlV0b3BpYTETMBEG
A1UECxMKUmVsYXhhdGlvbjEmMCQGA1UEAxMdc2xhc2ggY2xpZW50IHdpdGggc2hh
MjI0IGhhc2gwgZ8wDQYJKoZIhvcNAQEBBQADgY0AMIGJAoGBAMoDjhcnP7cHMLnC
PAj6Te+TwBbLhCEsB7g6S2TYGGWxxQPMoi0v7BHZYrc1KKjG8ir9wJ3FNd7tCSXq
2xFiTyZj8jMiQVdXceHeE5uSsVPxYFRLypZzu6r9jGZW87h98VL/8A1vPaaFEr1F
4XLD6Hrzj7KgmmRZCQWzAKH/s2irAgMBAAGjZTBjMAkGA1UdEwQCMAAwDgYDVR0P
AQH/BAQDAgXgMBEGCWCGSAGG+EIBAQQEAwIFoDAzBglghkgBhvhCAQ0EJhYkT3Bl
blNTTCBHZW5lcmF0ZWQgQ2xpZW50IENlcnRpZmljYXRlMA0GCSqGSIb3DQEBDgUA
A4GBAKcdpZypwP0r+saZCKSXFRVGj09dE3DbYA/gGwp04HE9BGCcqNmLv8GidMSM
tM12+VYISSlZDYmIiD9yALYFkCOwwvPJue37fpH6G5IkmkJEkM23wEsjdmpnAWnU
a8ZXt0QWSnEFyvCzvwRonHHN+57rxdnqMwcKA6XfPT2spqSh
-----END CERTIFICATE-----
