Certificate:
    Data:
        Version: 3 (0x2)
        Serial Number: 378 (0x17a)
        Signature Algorithm: sha384WithRSAEncryption
        Issuer: C=UG, L=Tropic, O=http://slash.slash.edu:7656/testing, OU=Relaxation, CN=the slash CA
        Validity
            Not Before: Feb  9 18:48:29 2012 GMT
            Not After : Oct 18 18:48:29 2025 GMT
        Subject: C=UG, L=Tropic, O=Utopia, OU=Relaxation, CN=slash client with sha384 hash
        Subject Public Key Info:
            Public Key Algorithm: rsaEncryption
                Public-Key: (1024 bit)
                Modulus:
                    00:ac:b7:8b:78:1e:63:34:7b:63:18:9d:fb:e2:4e:
                    38:7d:3c:4b:30:00:18:09:ee:30:8f:b6:68:02:23:
                    fa:1b:38:42:06:b8:d4:35:f1:87:db:91:38:53:2b:
                    28:13:47:fa:47:f2:4f:f9:17:2a:a8:a3:55:e3:65:
                    09:16:6c:a3:32:59:43:c1:60:74:7a:46:38:13:a5:
                    96:75:56:9e:31:ad:55:fb:b0:58:25:18:67:21:10:
                    81:2b:2a:e2:27:0a:96:49:81:2b:ae:d6:46:28:95:
                    e3:4e:64:25:ef:7e:87:f3:93:48:e3:39:70:0c:6a:
                    75:47:f7:ff:9a:90:45:86:e9
                Exponent: 65537 (0x10001)
        X509v3 extensions:
            X509v3 Basic Constraints: 
                CA:FALSE
            X509v3 Key Usage: critical
                Digital Signature, Non Repudiation, Key Encipherment
            Netscape Cert Type: 
                SSL Client, S/MIME
            Netscape Comment: 
                OpenSSL Generated Client Certificate
    Signature Algorithm: sha384WithRSAEncryption
        3c:9b:58:72:d7:2c:12:9c:48:f5:18:9b:b7:51:ce:c1:dd:d3:
        f5:fd:a3:10:6d:fe:bf:6c:3d:6a:19:65:94:c0:b3:c7:be:8e:
        22:da:12:62:ae:2c:1d:75:03:ee:bb:7c:5f:a0:98:64:bf:8b:
        f0:b5:a0:a9:55:3b:c0:f4:24:b9:79:7b:dd:15:5b:ab:4a:b6:
        5e:40:d8:29:ad:ef:33:b9:32:1c:f7:2d:e2:3f:44:94:50:e8:
        c1:28:b8:c5:26:77:17:52:d3:c9:f7:02:87:56:fb:4e:0f:02:
        1e:13:16:70:a2:20:2d:fd:d0:c8:8e:b0:84:67:2e:7f:a3:64:
        0f:b2
-----BEGIN CERTIFICATE-----
MIICwDCCAimgAwIBAgICAXowDQYJKoZIhvcNAQEMBQAweDELMAkGA1UEBhMCVUcx
DzANBgNVBAcTBlRyb3BpYzEsMCoGA1UEChMjaHR0cDovL3NsYXNoLnNsYXNoLmVk
dTo3NjU2L3Rlc3RpbmcxEzARBgNVBAsTClJlbGF4YXRpb24xFTATBgNVBAMTDHRo
ZSBzbGFzaCBDQTAeFw0xMjAyMDkxODQ4MjlaFw0yNTEwMTgxODQ4MjlaMGwxCzAJ
BgNVBAYTAlVHMQ8wDQYDVQQHEwZUcm9waWMxDzANBgNVBAoTBlV0b3BpYTETMBEG
A1UECxMKUmVsYXhhdGlvbjEmMCQGA1UEAxMdc2xhc2ggY2xpZW50IHdpdGggc2hh
Mzg0IGhhc2gwgZ8wDQYJKoZIhvcNAQEBBQADgY0AMIGJAoGBAKy3i3geYzR7Yxid
++JOOH08SzAAGAnuMI+2aAIj+hs4Qga41DXxh9uROFMrKBNH+kfyT/kXKqijVeNl
CRZsozJZQ8FgdHpGOBOllnVWnjGtVfuwWCUYZyEQgSsq4icKlkmBK67WRiiV405k
Je9+h/OTSOM5cAxqdUf3/5qQRYbpAgMBAAGjZTBjMAkGA1UdEwQCMAAwDgYDVR0P
AQH/BAQDAgXgMBEGCWCGSAGG+EIBAQQEAwIFoDAzBglghkgBhvhCAQ0EJhYkT3Bl
blNTTCBHZW5lcmF0ZWQgQ2xpZW50IENlcnRpZmljYXRlMA0GCSqGSIb3DQEBDAUA
A4GBADybWHLXLBKcSPUYm7dRzsHd0/X9oxBt/r9sPWoZZZTAs8e+jiLaEmKuLB11
A+67fF+gmGS/i/C1oKlVO8D0JLl5e90VW6tKtl5A2Cmt7zO5Mhz3LeI/RJRQ6MEo
uMUmdxdS08n3AodW+04PAh4TFnCiIC390MiOsIRnLn+jZA+y
-----END CERTIFICATE-----
