Certificate:
    Data:
        Version: 3 (0x2)
        Serial Number: 380 (0x17c)
        Signature Algorithm: sha512WithRSAEncryption
        Issuer: C=UG, L=Tropic, O=Utopia, OU=Relaxation, CN=the subsubca CA
        Validity
            Not Before: Feb  9 18:48:24 2012 GMT
            Not After : Oct 18 18:48:24 2025 GMT
        Subject: C=UG, L=Tropic, O=Utopia, OU=Relaxation, CN=subsubca client with sha512 hash
        Subject Public Key Info:
            Public Key Algorithm: rsaEncryption
                Public-Key: (1024 bit)
                Modulus:
                    00:cb:98:b3:b5:25:19:10:29:2f:5c:e5:34:7e:3c:
                    71:98:73:87:58:63:92:2b:79:88:5b:cb:d5:b1:8e:
                    c6:74:d5:3a:db:09:b2:85:e7:1d:9f:03:25:c5:c9:
                    60:2f:0d:47:a6:a2:29:5b:7e:25:99:e5:de:4a:3b:
                    da:ac:84:f6:d9:60:8b:97:b0:66:0d:77:3a:3d:4f:
                    69:07:b0:eb:c0:ce:76:d2:cf:4c:d1:33:98:db:f5:
                    97:26:01:87:d6:80:59:d1:99:d0:c8:9b:8f:9d:ae:
                    5d:f2:1f:2d:f5:fa:cf:e7:d7:96:1b:0f:fe:59:f3:
                    47:d8:c3:0e:6f:ea:7b:bf:df
                Exponent: 65537 (0x10001)
        X509v3 extensions:
            X509v3 Basic Constraints: 
                CA:FALSE
            X509v3 Key Usage: critical
                Digital Signature, Non Repudiation, Key Encipherment
            Netscape Cert Type: 
                SSL Client, S/MIME
            Netscape Comment: 
                OpenSSL Generated Client Certificate
    Signature Algorithm: sha512WithRSAEncryption
        4f:92:76:a8:0b:80:0e:7b:63:68:d6:d2:54:08:d3:e2:c7:d8:
        06:6d:70:6a:43:92:83:f5:2c:c6:9a:52:33:f7:71:a6:42:ae:
        42:df:db:3c:a4:16:aa:9f:d7:1e:2d:84:15:fe:47:94:b8:aa:
        66:79:81:cf:98:e3:5e:38:63:53:1d:89:ef:49:16:bf:bf:9a:
        07:77:5f:91:49:84:8f:2c:77:23:de:97:e7:f3:97:5b:5d:d0:
        69:cd:5c:52:7e:6f:66:dc:a9:82:29:0c:f2:ee:25:36:a2:87:
        06:3a:ba:2a:d7:28:ee:01:f7:f5:79:ff:ba:71:48:38:75:5d:
        e6:43
-----BEGIN CERTIFICATE-----
MIICqTCCAhKgAwIBAgICAXwwDQYJKoZIhvcNAQENBQAwXjELMAkGA1UEBhMCVUcx
DzANBgNVBAcTBlRyb3BpYzEPMA0GA1UEChMGVXRvcGlhMRMwEQYDVQQLEwpSZWxh
eGF0aW9uMRgwFgYDVQQDEw90aGUgc3Vic3ViY2EgQ0EwHhcNMTIwMjA5MTg0ODI0
WhcNMjUxMDE4MTg0ODI0WjBvMQswCQYDVQQGEwJVRzEPMA0GA1UEBxMGVHJvcGlj
MQ8wDQYDVQQKEwZVdG9waWExEzARBgNVBAsTClJlbGF4YXRpb24xKTAnBgNVBAMT
IHN1YnN1YmNhIGNsaWVudCB3aXRoIHNoYTUxMiBoYXNoMIGfMA0GCSqGSIb3DQEB
AQUAA4GNADCBiQKBgQDLmLO1JRkQKS9c5TR+PHGYc4dYY5IreYhby9WxjsZ01Trb
CbKF5x2fAyXFyWAvDUemoilbfiWZ5d5KO9qshPbZYIuXsGYNdzo9T2kHsOvAznbS
z0zRM5jb9ZcmAYfWgFnRmdDIm4+drl3yHy31+s/n15YbD/5Z80fYww5v6nu/3wID
AQABo2UwYzAJBgNVHRMEAjAAMA4GA1UdDwEB/wQEAwIF4DARBglghkgBhvhCAQEE
BAMCBaAwMwYJYIZIAYb4QgENBCYWJE9wZW5TU0wgR2VuZXJhdGVkIENsaWVudCBD
ZXJ0aWZpY2F0ZTANBgkqhkiG9w0BAQ0FAAOBgQBPknaoC4AOe2No1tJUCNPix9gG
bXBqQ5KD9SzGmlIz93GmQq5C39s8pBaqn9ceLYQV/keUuKpmeYHPmONeOGNTHYnv
SRa/v5oHd1+RSYSPLHcj3pfn85dbXdBpzVxSfm9m3KmCKQzy7iU2oocGOroq1yju
Aff1ef+6cUg4dV3mQw==
-----END CERTIFICATE-----
