Certificate:
    Data:
        Version: 3 (0x2)
        Serial Number: 381 (0x17d)
        Signature Algorithm: sha1WithRSAEncryption
        Issuer: C=UG, L=Tropic, O=Utopia, OU=Relaxation, CN=the subsubca CA
        Validity
            Not Before: Feb  9 18:48:24 2012 GMT
            Not After : Oct 18 18:48:24 2025 GMT
        Subject: C=UG, L=Tropic, O=Utopia, OU=Chilling, CN=subsubca client with bad DN
        Subject Public Key Info:
            Public Key Algorithm: rsaEncryption
                Public-Key: (1024 bit)
                Modulus:
                    00:aa:49:7d:4d:a5:f8:5d:34:18:88:60:4d:5b:a8:
                    ea:8d:d0:d0:60:ea:f9:33:3e:e1:06:64:16:07:25:
                    b7:0f:22:64:da:4d:d7:47:68:ac:77:5b:36:9b:2b:
                    45:e8:9a:3d:01:48:69:39:24:bd:ef:40:22:52:7d:
                    b6:d4:a9:1c:2f:64:fa:89:29:0c:22:2b:ff:bc:0e:
                    a2:3c:85:01:e6:95:34:82:11:8b:b1:2c:f6:b5:b9:
                    49:8f:f4:7d:a0:ce:46:0f:58:dd:85:3f:cc:da:c0:
                    70:32:6a:b8:98:80:4e:49:6c:23:32:ae:98:d6:6f:
                    9f:a3:d1:4e:bc:fc:7d:04:85
                Exponent: 65537 (0x10001)
        X509v3 extensions:
            X509v3 Basic Constraints: 
                CA:FALSE
            X509v3 Key Usage: critical
                Digital Signature, Non Repudiation, Key Encipherment
            Netscape Cert Type: 
                SSL Client, S/MIME
            Netscape Comment: 
                OpenSSL Generated Client Certificate
    Signature Algorithm: sha1WithRSAEncryption
        91:a5:b2:31:0d:78:fb:dd:9e:6a:53:20:94:0c:6c:b8:fb:80:
        81:4c:55:c1:bb:cf:db:5c:79:aa:96:a9:67:61:bb:ce:6d:f8:
        5d:fd:7b:05:63:41:2a:15:b9:7f:d3:bf:d7:aa:21:66:cf:bf:
        8d:f5:53:5f:4a:7e:3b:82:01:1e:8d:4a:1d:4b:d4:5d:1f:2c:
        c9:04:cd:59:62:83:5e:07:a4:13:74:1f:41:e5:13:aa:60:4b:
        c9:e0:36:27:07:50:36:b1:04:88:e5:c4:94:d6:91:87:03:76:
        89:a0:d1:98:b6:09:3a:7e:be:43:8d:c2:32:60:a6:52:62:6d:
        17:65
-----BEGIN CERTIFICATE-----
MIICojCCAgugAwIBAgICAX0wDQYJKoZIhvcNAQEFBQAwXjELMAkGA1UEBhMCVUcx
DzANBgNVBAcTBlRyb3BpYzEPMA0GA1UEChMGVXRvcGlhMRMwEQYDVQQLEwpSZWxh
eGF0aW9uMRgwFgYDVQQDEw90aGUgc3Vic3ViY2EgQ0EwHhcNMTIwMjA5MTg0ODI0
WhcNMjUxMDE4MTg0ODI0WjBoMQswCQYDVQQGEwJVRzEPMA0GA1UEBxMGVHJvcGlj
MQ8wDQYDVQQKEwZVdG9waWExETAPBgNVBAsTCENoaWxsaW5nMSQwIgYDVQQDExtz
dWJzdWJjYSBjbGllbnQgd2l0aCBiYWQgRE4wgZ8wDQYJKoZIhvcNAQEBBQADgY0A
MIGJAoGBAKpJfU2l+F00GIhgTVuo6o3Q0GDq+TM+4QZkFgcltw8iZNpN10dorHdb
NpsrReiaPQFIaTkkve9AIlJ9ttSpHC9k+okpDCIr/7wOojyFAeaVNIIRi7Es9rW5
SY/0faDORg9Y3YU/zNrAcDJquJiATklsIzKumNZvn6PRTrz8fQSFAgMBAAGjZTBj
MAkGA1UdEwQCMAAwDgYDVR0PAQH/BAQDAgXgMBEGCWCGSAGG+EIBAQQEAwIFoDAz
BglghkgBhvhCAQ0EJhYkT3BlblNTTCBHZW5lcmF0ZWQgQ2xpZW50IENlcnRpZmlj
YXRlMA0GCSqGSIb3DQEBBQUAA4GBAJGlsjENePvdnmpTIJQMbLj7gIFMVcG7z9tc
eaqWqWdhu85t+F39ewVjQSoVuX/Tv9eqIWbPv431U19KfjuCAR6NSh1L1F0fLMkE
zVlig14HpBN0H0HlE6pgS8ngNicHUDaxBIjlxJTWkYcDdomg0Zi2CTp+vkONwjJg
plJibRdl
-----END CERTIFICATE-----
