Certificate:
    Data:
        Version: 3 (0x2)
        Serial Number: 375 (0x177)
        Signature Algorithm: sha1WithRSAEncryption
        Issuer: C=UG, L=Tropic, O=Utopia, OU=Relaxation, CN=the subsubca CA
        Validity
            Not Before: Feb  9 18:48:20 2012 GMT
            Not After : Oct 18 18:48:20 2025 GMT
        Subject: C=UG, L=Tropic, O=Utopia, OU=Relaxation, CN=subsubca client
        Subject Public Key Info:
            Public Key Algorithm: rsaEncryption
                Public-Key: (1024 bit)
                Modulus:
                    00:c0:39:a8:36:6a:9a:82:12:6f:4c:14:39:4b:8a:
                    47:2f:5c:3f:6b:d2:fe:29:c1:fa:db:f1:18:8c:69:
                    83:c3:d1:d3:3a:b5:f5:42:55:a2:79:28:1b:c3:48:
                    ed:e2:0c:37:1c:83:0e:23:ef:e3:9c:2c:32:49:54:
                    9a:81:f5:e0:1e:6d:21:3a:fb:b6:e4:d6:c0:33:51:
                    91:bd:a2:2d:9e:85:a8:cd:fa:2d:ad:c3:40:f5:d6:
                    89:31:6e:62:0a:a3:67:61:ef:a0:82:87:fd:3a:d9:
                    9e:c6:3e:f7:25:ac:33:41:f7:a8:3e:3e:58:ea:b8:
                    81:40:b1:53:19:d0:65:09:57
                Exponent: 65537 (0x10001)
        X509v3 extensions:
            X509v3 Basic Constraints: 
                CA:FALSE
            X509v3 Key Usage: critical
                Digital Signature, Non Repudiation, Key Encipherment
            Netscape Cert Type: 
                SSL Client, S/MIME
            Netscape Comment: 
                OpenSSL Generated Client Certificate
    Signature Algorithm: sha1WithRSAEncryption
        8b:64:e0:dd:ca:73:56:c3:95:80:1d:d3:79:c3:95:30:58:c0:
        9e:73:99:9e:09:df:ec:b7:8c:68:26:46:69:ec:88:0e:44:a5:
        77:42:67:13:ea:7f:74:8f:dc:20:00:7e:9e:2b:ad:9b:f9:71:
        1c:df:fd:64:90:5a:ef:5a:c5:56:7e:21:bb:7d:8b:ac:e9:93:
        d4:b1:77:26:1e:48:03:14:dd:11:30:80:f8:63:f2:05:11:8c:
        4f:4b:a1:07:69:a6:6f:bb:a8:16:f2:46:68:95:90:52:c8:76:
        f4:3c:27:bb:d7:bb:18:8a:0b:68:79:83:6e:c0:d7:53:9a:c0:
        9a:d4
-----BEGIN CERTIFICATE-----
MIICmDCCAgGgAwIBAgICAXcwDQYJKoZIhvcNAQEFBQAwXjELMAkGA1UEBhMCVUcx
DzANBgNVBAcTBlRyb3BpYzEPMA0GA1UEChMGVXRvcGlhMRMwEQYDVQQLEwpSZWxh
eGF0aW9uMRgwFgYDVQQDEw90aGUgc3Vic3ViY2EgQ0EwHhcNMTIwMjA5MTg0ODIw
WhcNMjUxMDE4MTg0ODIwWjBeMQswCQYDVQQGEwJVRzEPMA0GA1UEBxMGVHJvcGlj
MQ8wDQYDVQQKEwZVdG9waWExEzARBgNVBAsTClJlbGF4YXRpb24xGDAWBgNVBAMT
D3N1YnN1YmNhIGNsaWVudDCBnzANBgkqhkiG9w0BAQEFAAOBjQAwgYkCgYEAwDmo
NmqaghJvTBQ5S4pHL1w/a9L+KcH62/EYjGmDw9HTOrX1QlWieSgbw0jt4gw3HIMO
I+/jnCwySVSagfXgHm0hOvu25NbAM1GRvaItnoWozfotrcNA9daJMW5iCqNnYe+g
gof9Otmexj73JawzQfeoPj5Y6riBQLFTGdBlCVcCAwEAAaNlMGMwCQYDVR0TBAIw
ADAOBgNVHQ8BAf8EBAMCBeAwEQYJYIZIAYb4QgEBBAQDAgWgMDMGCWCGSAGG+EIB
DQQmFiRPcGVuU1NMIEdlbmVyYXRlZCBDbGllbnQgQ2VydGlmaWNhdGUwDQYJKoZI
hvcNAQEFBQADgYEAi2Tg3cpzVsOVgB3TecOVMFjAnnOZngnf7LeMaCZGaeyIDkSl
d0JnE+p/dI/cIAB+niutm/lxHN/9ZJBa71rFVn4hu32LrOmT1LF3Jh5IAxTdETCA
+GPyBRGMT0uhB2mmb7uoFvJGaJWQUsh29Dwnu9e7GIoLaHmDbsDXU5rAmtQ=
-----END CERTIFICATE-----
