Certificate:
    Data:
        Version: 3 (0x2)
        Serial Number: 384 (0x180)
        Signature Algorithm: sha1WithRSAEncryption
        Issuer: C=UG, L=Tropic, O=Utopia, OU=Relaxation, CN=the subsubca CA
        Validity
            Not Before: Feb  9 18:48:25 2012 GMT
            Not After : Oct 18 18:48:25 2025 GMT
        Subject: C=UG, L=Tropic, O=Utopia, OU=Relaxation, CN=subsubca client revoked
        Subject Public Key Info:
            Public Key Algorithm: rsaEncryption
                Public-Key: (1024 bit)
                Modulus:
                    00:c8:48:80:13:c2:cd:73:6c:18:8e:37:fb:70:00:
                    62:32:bd:c8:08:49:5d:a7:e4:00:b0:a5:c3:72:e2:
                    fa:97:a4:04:12:f7:de:17:ed:a5:e1:5d:a5:29:8f:
                    df:41:cf:7c:ef:19:f6:8b:e2:84:8b:31:2a:58:7d:
                    82:3d:86:3a:0c:9d:95:33:45:a7:99:ff:de:36:d4:
                    13:32:ec:38:f0:7b:46:5b:d3:5a:5e:c0:8f:75:b8:
                    b9:30:1f:f2:80:69:e5:86:e6:97:44:d8:ac:b9:c0:
                    be:b2:1e:b5:92:58:c8:0b:7c:13:8c:dd:8c:6e:26:
                    a3:83:69:7b:f2:0a:38:77:8d
                Exponent: 65537 (0x10001)
        X509v3 extensions:
            X509v3 Basic Constraints: 
                CA:FALSE
            X509v3 Key Usage: critical
                Digital Signature, Non Repudiation, Key Encipherment
            Netscape Cert Type: 
                SSL Client, S/MIME
            Netscape Comment: 
                OpenSSL Generated Client Certificate
    Signature Algorithm: sha1WithRSAEncryption
        96:01:4d:f1:14:7a:c6:8f:cf:94:ca:a3:b2:56:cf:e9:9e:ba:
        31:c5:22:af:44:2e:ff:e1:70:a2:9c:a0:46:30:b6:6b:21:1f:
        f1:ae:02:94:f6:76:16:2a:74:77:68:45:97:d9:31:0d:c0:f3:
        a6:0f:b1:01:6a:ca:0c:a5:17:f3:e6:8d:ad:04:bc:82:fd:d9:
        dd:e4:6a:11:f9:9b:90:25:e2:97:b9:71:cf:ef:ab:14:b7:ea:
        56:82:25:ca:e5:8a:5b:bd:d7:a8:bc:b2:93:eb:ed:b9:ac:e9:
        45:f1:6e:db:83:06:da:03:59:2c:2c:bd:f4:cd:17:4d:e7:fa:
        ca:36
-----BEGIN CERTIFICATE-----
MIICoDCCAgmgAwIBAgICAYAwDQYJKoZIhvcNAQEFBQAwXjELMAkGA1UEBhMCVUcx
DzANBgNVBAcTBlRyb3BpYzEPMA0GA1UEChMGVXRvcGlhMRMwEQYDVQQLEwpSZWxh
eGF0aW9uMRgwFgYDVQQDEw90aGUgc3Vic3ViY2EgQ0EwHhcNMTIwMjA5MTg0ODI1
WhcNMjUxMDE4MTg0ODI1WjBmMQswCQYDVQQGEwJVRzEPMA0GA1UEBxMGVHJvcGlj
MQ8wDQYDVQQKEwZVdG9waWExEzARBgNVBAsTClJlbGF4YXRpb24xIDAeBgNVBAMT
F3N1YnN1YmNhIGNsaWVudCByZXZva2VkMIGfMA0GCSqGSIb3DQEBAQUAA4GNADCB
iQKBgQDISIATws1zbBiON/twAGIyvcgISV2n5ACwpcNy4vqXpAQS994X7aXhXaUp
j99Bz3zvGfaL4oSLMSpYfYI9hjoMnZUzRaeZ/9421BMy7Djwe0Zb01pewI91uLkw
H/KAaeWG5pdE2Ky5wL6yHrWSWMgLfBOM3YxuJqODaXvyCjh3jQIDAQABo2UwYzAJ
BgNVHRMEAjAAMA4GA1UdDwEB/wQEAwIF4DARBglghkgBhvhCAQEEBAMCBaAwMwYJ
YIZIAYb4QgENBCYWJE9wZW5TU0wgR2VuZXJhdGVkIENsaWVudCBDZXJ0aWZpY2F0
ZTANBgkqhkiG9w0BAQUFAAOBgQCWAU3xFHrGj8+UyqOyVs/pnroxxSKvRC7/4XCi
nKBGMLZrIR/xrgKU9nYWKnR3aEWX2TENwPOmD7EBasoMpRfz5o2tBLyC/dnd5GoR
+ZuQJeKXuXHP76sUt+pWgiXK5YpbvdeovLKT6+25rOlF8W7bgwbaA1ksLL30zRdN
5/rKNg==
-----END CERTIFICATE-----
