Certificate:
    Data:
        Version: 3 (0x2)
        Serial Number: 376 (0x178)
        Signature Algorithm: md5WithRSAEncryption
        Issuer: C=UG, L=Tropic, O=Utopia, OU=Relaxation, CN=the subsubca CA
        Validity
            Not Before: Feb  9 18:48:23 2012 GMT
            Not After : Oct 18 18:48:23 2025 GMT
        Subject: C=UG, L=Tropic, O=Utopia, OU=Relaxation, CN=subsubca client with md5 hash
        Subject Public Key Info:
            Public Key Algorithm: rsaEncryption
                Public-Key: (1024 bit)
                Modulus:
                    00:b9:c1:8d:29:69:68:69:65:4f:c9:6b:34:d7:b2:
                    88:e0:c3:9c:2e:01:b2:89:37:d6:07:2e:6c:d2:d1:
                    b9:da:8e:41:51:55:25:8e:9d:f8:ad:c6:f8:6a:da:
                    aa:03:f8:d3:82:db:36:4c:0f:33:3c:e1:8d:ab:ec:
                    19:f5:c3:33:8c:ab:f7:30:cb:92:bb:2c:58:f1:e4:
                    57:0f:aa:c0:01:ab:27:69:74:19:62:73:b3:12:22:
                    0d:dd:ca:51:23:0e:89:0c:37:f1:0f:85:81:4d:a9:
                    58:22:82:28:e3:2b:be:bd:9a:d7:4f:94:66:98:f1:
                    ae:44:53:44:63:83:2a:34:57
                Exponent: 65537 (0x10001)
        X509v3 extensions:
            X509v3 Basic Constraints: 
                CA:FALSE
            X509v3 Key Usage: critical
                Digital Signature, Non Repudiation, Key Encipherment
            Netscape Cert Type: 
                SSL Client, S/MIME
            Netscape Comment: 
                OpenSSL Generated Client Certificate
    Signature Algorithm: md5WithRSAEncryption
        56:ce:84:a5:46:49:2d:73:10:26:87:13:b2:d7:dc:5b:d8:b8:
        38:30:c3:66:9e:6a:d1:db:94:81:33:06:f0:91:14:ac:2e:26:
        cb:de:f2:ec:eb:ac:ea:76:5e:45:1c:54:1e:bf:08:90:86:95:
        df:75:6b:ef:e7:aa:09:f7:91:10:4c:b7:7d:2f:6c:7e:27:4b:
        71:66:ca:f9:d6:1a:df:99:5c:88:a0:40:8a:68:b7:ac:0a:6f:
        c6:af:12:bd:4a:06:5a:6c:04:e0:b4:ec:bc:d0:9c:aa:a3:a4:
        3c:d8:4c:e7:5f:0d:e7:7d:61:99:5c:a7:ea:db:6e:22:5f:3b:
        31:1e
-----BEGIN CERTIFICATE-----
MIICpjCCAg+gAwIBAgICAXgwDQYJKoZIhvcNAQEEBQAwXjELMAkGA1UEBhMCVUcx
DzANBgNVBAcTBlRyb3BpYzEPMA0GA1UEChMGVXRvcGlhMRMwEQYDVQQLEwpSZWxh
eGF0aW9uMRgwFgYDVQQDEw90aGUgc3Vic3ViY2EgQ0EwHhcNMTIwMjA5MTg0ODIz
WhcNMjUxMDE4MTg0ODIzWjBsMQswCQYDVQQGEwJVRzEPMA0GA1UEBxMGVHJvcGlj
MQ8wDQYDVQQKEwZVdG9waWExEzARBgNVBAsTClJlbGF4YXRpb24xJjAkBgNVBAMT
HXN1YnN1YmNhIGNsaWVudCB3aXRoIG1kNSBoYXNoMIGfMA0GCSqGSIb3DQEBAQUA
A4GNADCBiQKBgQC5wY0paWhpZU/JazTXsojgw5wuAbKJN9YHLmzS0bnajkFRVSWO
nfitxvhq2qoD+NOC2zZMDzM84Y2r7Bn1wzOMq/cwy5K7LFjx5FcPqsABqydpdBli
c7MSIg3dylEjDokMN/EPhYFNqVgigijjK769mtdPlGaY8a5EU0Rjgyo0VwIDAQAB
o2UwYzAJBgNVHRMEAjAAMA4GA1UdDwEB/wQEAwIF4DARBglghkgBhvhCAQEEBAMC
BaAwMwYJYIZIAYb4QgENBCYWJE9wZW5TU0wgR2VuZXJhdGVkIENsaWVudCBDZXJ0
aWZpY2F0ZTANBgkqhkiG9w0BAQQFAAOBgQBWzoSlRkktcxAmhxOy19xb2Lg4MMNm
nmrR25SBMwbwkRSsLibL3vLs66zqdl5FHFQevwiQhpXfdWvv56oJ95EQTLd9L2x+
J0txZsr51hrfmVyIoECKaLesCm/GrxK9SgZabATgtOy80Jyqo6Q82EznXw3nfWGZ
XKfq224iXzsxHg==
-----END CERTIFICATE-----
