Certificate:
    Data:
        Version: 3 (0x2)
        Serial Number: 412 (0x19c)
        Signature Algorithm: sha1WithRSAEncryption
        Issuer: C=UG, L=Tropic, O=Utopia, OU=Relaxation, CN=the trusted CA
        Validity
            Not Before: Feb  9 18:47:48 2012 GMT
            Not After : Oct 18 18:47:48 2025 GMT
        Subject: C=UG, L=Tropic, O=Utopia, OU=Relaxation, CN=trusted clientserver revoked
        Subject Public Key Info:
            Public Key Algorithm: rsaEncryption
                Public-Key: (1024 bit)
                Modulus:
                    00:a6:8e:4c:75:7a:16:b1:a8:50:80:46:3e:6f:17:
                    80:63:92:01:cf:70:33:2b:6b:8d:30:b4:1c:5c:af:
                    6f:79:30:fb:38:00:c8:5f:eb:f8:ac:5d:07:c2:6b:
                    50:1a:bc:81:05:95:bb:1c:c9:1c:0a:b9:34:41:4d:
                    68:14:70:88:83:50:a6:02:ee:80:ad:21:8c:1c:b2:
                    00:50:87:26:b6:3a:d3:fd:fd:f9:1a:37:b3:33:8a:
                    3c:6b:87:ba:43:96:86:17:dc:e3:9e:a2:eb:99:39:
                    df:ad:0b:9a:f9:12:39:0e:83:c8:64:a5:d4:d9:c5:
                    59:b7:fd:27:ba:0d:dd:ea:f1
                Exponent: 65537 (0x10001)
        X509v3 extensions:
            X509v3 Basic Constraints: 
                CA:FALSE
            X509v3 Key Usage: critical
                Digital Signature, Non Repudiation, Key Encipherment
            Netscape Cert Type: 
                SSL Client, SSL Server, S/MIME
            Netscape Comment: 
                OpenSSL Generated Client Server Certificate
    Signature Algorithm: sha1WithRSAEncryption
        90:92:43:17:12:35:8c:b4:1b:b8:8e:6d:41:b1:18:bf:94:ef:
        95:64:df:94:a0:19:f1:eb:37:17:5a:93:4d:6a:15:39:fd:c6:
        f6:2c:96:6a:ca:c3:e1:ab:3b:ec:40:ff:5e:55:c9:d9:78:09:
        6c:f4:f0:41:6a:90:0f:e1:05:8f:fe:be:f9:10:cd:6c:b1:18:
        8e:c5:12:34:92:dc:69:0a:65:35:a1:47:08:c2:2c:7f:fb:da:
        8f:7a:f8:fe:0d:ad:62:c6:30:25:2d:05:e9:bf:d8:61:b8:da:
        3f:19:b6:6b:ad:bb:57:48:eb:0f:4d:e7:05:98:7d:d3:60:25:
        87:e2
-----BEGIN CERTIFICATE-----
MIICqzCCAhSgAwIBAgICAZwwDQYJKoZIhvcNAQEFBQAwXTELMAkGA1UEBhMCVUcx
DzANBgNVBAcTBlRyb3BpYzEPMA0GA1UEChMGVXRvcGlhMRMwEQYDVQQLEwpSZWxh
eGF0aW9uMRcwFQYDVQQDEw50aGUgdHJ1c3RlZCBDQTAeFw0xMjAyMDkxODQ3NDha
Fw0yNTEwMTgxODQ3NDhaMGsxCzAJBgNVBAYTAlVHMQ8wDQYDVQQHEwZUcm9waWMx
DzANBgNVBAoTBlV0b3BpYTETMBEGA1UECxMKUmVsYXhhdGlvbjElMCMGA1UEAxMc
dHJ1c3RlZCBjbGllbnRzZXJ2ZXIgcmV2b2tlZDCBnzANBgkqhkiG9w0BAQEFAAOB
jQAwgYkCgYEApo5MdXoWsahQgEY+bxeAY5IBz3AzK2uNMLQcXK9veTD7OADIX+v4
rF0HwmtQGryBBZW7HMkcCrk0QU1oFHCIg1CmAu6ArSGMHLIAUIcmtjrT/f35Gjez
M4o8a4e6Q5aGF9zjnqLrmTnfrQua+RI5DoPIZKXU2cVZt/0nug3d6vECAwEAAaNs
MGowCQYDVR0TBAIwADAOBgNVHQ8BAf8EBAMCBeAwEQYJYIZIAYb4QgEBBAQDAgXg
MDoGCWCGSAGG+EIBDQQtFitPcGVuU1NMIEdlbmVyYXRlZCBDbGllbnQgU2VydmVy
IENlcnRpZmljYXRlMA0GCSqGSIb3DQEBBQUAA4GBAJCSQxcSNYy0G7iObUGxGL+U
75Vk35SgGfHrNxdak01qFTn9xvYslmrKw+GrO+xA/15Vydl4CWz08EFqkA/hBY/+
vvkQzWyxGI7FEjSS3GkKZTWhRwjCLH/72o96+P4NrWLGMCUtBem/2GG42j8Ztmut
u1dI6w9N5wWYfdNgJYfi
-----END CERTIFICATE-----
