Certificate:
    Data:
        Version: 3 (0x2)
        Serial Number: 414 (0x19e)
        Signature Algorithm: sha1WithRSAEncryption
        Issuer: C=UG, L=Tropic, O=Utopia, OU=Relaxation, CN=the trusted CA
        Validity
            Not Before: Feb  9 18:47:48 2012 GMT
            Not After : Oct 18 18:47:48 2025 GMT
        Subject: C=UG, L=Tropic, O=Utopia, OU=Relaxation, CN=hahkala
        Subject Public Key Info:
            Public Key Algorithm: rsaEncryption
                Public-Key: (1024 bit)
                Modulus:
                    00:c9:73:1e:94:f8:2c:f1:be:51:2b:70:e2:3e:e5:
                    4f:6a:95:14:af:f5:48:44:97:46:14:3b:f6:9b:bf:
                    e8:65:85:ef:fc:cb:a5:89:52:a1:27:a8:05:1f:37:
                    ec:fd:d3:43:0b:f2:fc:51:ba:01:31:39:cd:cc:64:
                    77:93:97:b8:8b:9d:6a:3a:c9:cf:00:ff:a9:75:e8:
                    e1:4b:a2:dc:7f:d8:76:37:5a:e9:a8:c5:aa:ac:35:
                    b8:c2:73:f4:ae:55:b3:7c:bf:a7:90:03:4f:37:8c:
                    39:52:af:79:8e:68:15:63:2c:e9:c8:ba:9d:e4:ac:
                    08:46:ed:ab:41:7a:f7:c3:0f
                Exponent: 65537 (0x10001)
        X509v3 extensions:
            X509v3 Basic Constraints: 
                CA:FALSE
            X509v3 Key Usage: critical
                Digital Signature, Non Repudiation, Key Encipherment
            Netscape Cert Type: 
                SSL Client, S/MIME
            Netscape Comment: 
                OpenSSL Generated Client Certificate
    Signature Algorithm: sha1WithRSAEncryption
        1d:b0:a1:52:b4:eb:39:03:f8:d7:1b:11:d0:63:20:72:15:12:
        82:d3:fd:eb:b7:11:32:c0:a1:75:56:9e:b7:39:94:65:e2:95:
        4c:53:59:a4:65:4e:96:f8:08:a3:f7:81:fe:d5:25:1e:16:4f:
        2e:13:67:18:42:ee:2c:04:b1:df:90:06:9c:6f:87:2b:ef:be:
        aa:27:f5:ff:b5:45:aa:7a:29:ed:3d:ef:37:b5:12:14:3a:8a:
        ae:eb:58:be:25:41:76:c7:8c:42:80:f4:fb:2a:ca:16:ab:90:
        5d:24:21:16:58:37:1f:0a:67:1d:4c:9b:d2:03:fd:93:c8:89:
        e7:d1
-----BEGIN CERTIFICATE-----
MIICjzCCAfigAwIBAgICAZ4wDQYJKoZIhvcNAQEFBQAwXTELMAkGA1UEBhMCVUcx
DzANBgNVBAcTBlRyb3BpYzEPMA0GA1UEChMGVXRvcGlhMRMwEQYDVQQLEwpSZWxh
eGF0aW9uMRcwFQYDVQQDEw50aGUgdHJ1c3RlZCBDQTAeFw0xMjAyMDkxODQ3NDha
Fw0yNTEwMTgxODQ3NDhaMFYxCzAJBgNVBAYTAlVHMQ8wDQYDVQQHEwZUcm9waWMx
DzANBgNVBAoTBlV0b3BpYTETMBEGA1UECxMKUmVsYXhhdGlvbjEQMA4GA1UEAxMH
aGFoa2FsYTCBnzANBgkqhkiG9w0BAQEFAAOBjQAwgYkCgYEAyXMelPgs8b5RK3Di
PuVPapUUr/VIRJdGFDv2m7/oZYXv/MuliVKhJ6gFHzfs/dNDC/L8UboBMTnNzGR3
k5e4i51qOsnPAP+pdejhS6Lcf9h2N1rpqMWqrDW4wnP0rlWzfL+nkANPN4w5Uq95
jmgVYyzpyLqd5KwIRu2rQXr3ww8CAwEAAaNlMGMwCQYDVR0TBAIwADAOBgNVHQ8B
Af8EBAMCBeAwEQYJYIZIAYb4QgEBBAQDAgWgMDMGCWCGSAGG+EIBDQQmFiRPcGVu
U1NMIEdlbmVyYXRlZCBDbGllbnQgQ2VydGlmaWNhdGUwDQYJKoZIhvcNAQEFBQAD
gYEAHbChUrTrOQP41xsR0GMgchUSgtP967cRMsChdVaetzmUZeKVTFNZpGVOlvgI
o/eB/tUlHhZPLhNnGELuLASx35AGnG+HK+++qif1/7VFqnop7T3vN7USFDqKrutY
viVBdseMQoD0+yrKFquQXSQhFlg3HwpnHUyb0gP9k8iJ59E=
-----END CERTIFICATE-----
