Certificate:
    Data:
        Version: 3 (0x2)
        Serial Number: 402 (0x192)
        Signature Algorithm: sha1WithRSAEncryption
        Issuer: C=UG, L=Tropic, O=Utopia, OU=Relaxation, CN=the trusted CA
        Validity
            Not Before: Feb  9 18:47:45 2012 GMT
            Not After : Oct 18 18:47:45 2025 GMT
        Subject: C=UG, L=Tropic, O=Utopia, OU=Relaxation, CN=trusted altname without hosname, CN=pchip10.cern.ch
        Subject Public Key Info:
            Public Key Algorithm: rsaEncryption
                Public-Key: (1024 bit)
                Modulus:
                    00:c7:22:b6:7c:33:ed:6f:27:6e:e2:01:3a:b5:ef:
                    d8:44:13:de:1a:c4:f8:86:bd:a2:df:f8:5a:90:a4:
                    4c:97:7e:f2:1c:7f:8b:49:85:b9:4c:ea:75:2b:83:
                    11:ac:ae:5a:25:b8:58:94:d7:fd:f0:92:47:35:54:
                    93:b9:67:01:eb:7d:d3:d9:ce:e5:df:c7:38:a6:1e:
                    f6:3a:1d:ae:16:d7:59:22:b5:86:14:14:f2:3d:57:
                    2e:92:0b:71:b1:e9:d5:cb:78:12:c4:61:e7:9c:cc:
                    be:df:19:23:0d:df:1e:26:ab:5d:d3:85:7f:2c:ec:
                    92:82:4b:5f:cb:62:af:30:77
                Exponent: 65537 (0x10001)
        X509v3 extensions:
            X509v3 Basic Constraints: 
                CA:FALSE
            X509v3 Key Usage: critical
                Digital Signature, Non Repudiation, Key Encipherment
            Netscape Cert Type: 
                SSL Server
            Netscape Comment: 
                OpenSSL Generated Server Certificate
            X509v3 Subject Alternative Name: 
                email:john.doe@foo.bar
    Signature Algorithm: sha1WithRSAEncryption
        7b:e2:23:c6:89:c8:60:32:16:67:11:4d:29:1c:82:c7:ef:19:
        f8:b7:de:cf:b7:61:a7:36:27:68:2e:0d:66:ef:a7:08:47:1c:
        85:08:44:e8:ea:ba:c4:22:1b:bd:3d:24:9a:10:80:fd:e6:e9:
        e1:a8:57:c1:7b:38:73:eb:5d:5b:18:b8:53:26:3b:09:35:d5:
        0c:44:f5:b1:25:4e:a7:7b:ef:b3:97:a0:1e:66:61:0a:eb:bd:
        79:7a:d1:8e:e6:0e:b1:d5:63:d7:f5:39:10:d2:2b:24:5d:9f:
        6a:16:ae:c4:b1:1d:e1:44:8b:6f:47:49:0d:3f:ce:05:74:83:
        1e:44
-----BEGIN CERTIFICATE-----
MIIC4TCCAkqgAwIBAgICAZIwDQYJKoZIhvcNAQEFBQAwXTELMAkGA1UEBhMCVUcx
DzANBgNVBAcTBlRyb3BpYzEPMA0GA1UEChMGVXRvcGlhMRMwEQYDVQQLEwpSZWxh
eGF0aW9uMRcwFQYDVQQDEw50aGUgdHJ1c3RlZCBDQTAeFw0xMjAyMDkxODQ3NDVa
Fw0yNTEwMTgxODQ3NDVaMIGIMQswCQYDVQQGEwJVRzEPMA0GA1UEBxMGVHJvcGlj
MQ8wDQYDVQQKEwZVdG9waWExEzARBgNVBAsTClJlbGF4YXRpb24xKDAmBgNVBAMT
H3RydXN0ZWQgYWx0bmFtZSB3aXRob3V0IGhvc25hbWUxGDAWBgNVBAMTD3BjaGlw
MTAuY2Vybi5jaDCBnzANBgkqhkiG9w0BAQEFAAOBjQAwgYkCgYEAxyK2fDPtbydu
4gE6te/YRBPeGsT4hr2i3/hakKRMl37yHH+LSYW5TOp1K4MRrK5aJbhYlNf98JJH
NVSTuWcB633T2c7l38c4ph72Oh2uFtdZIrWGFBTyPVcukgtxsenVy3gSxGHnnMy+
3xkjDd8eJqtd04V/LOySgktfy2KvMHcCAwEAAaOBgzCBgDAJBgNVHRMEAjAAMA4G
A1UdDwEB/wQEAwIF4DARBglghkgBhvhCAQEEBAMCBkAwMwYJYIZIAYb4QgENBCYW
JE9wZW5TU0wgR2VuZXJhdGVkIFNlcnZlciBDZXJ0aWZpY2F0ZTAbBgNVHREEFDAS
gRBqb2huLmRvZUBmb28uYmFyMA0GCSqGSIb3DQEBBQUAA4GBAHviI8aJyGAyFmcR
TSkcgsfvGfi33s+3Yac2J2guDWbvpwhHHIUIROjqusQiG709JJoQgP3m6eGoV8F7
OHPrXVsYuFMmOwk11QxE9bElTqd777OXoB5mYQrrvXl60Y7mDrHVY9f1ORDSKyRd
n2oWrsSxHeFEi29HSQ0/zgV0gx5E
-----END CERTIFICATE-----
