Certificate:
    Data:
        Version: 3 (0x2)
        Serial Number: 406 (0x196)
        Signature Algorithm: sha1WithRSAEncryption
        Issuer: C=UG, L=Tropic, O=Utopia, OU=Relaxation, CN=the trusted CA
        Validity
            Not Before: Feb  9 18:47:46 2012 GMT
            Not After : Feb  8 18:47:46 2012 GMT
        Subject: C=UG, L=Tropic, O=Utopia, OU=Relaxation, CN=trusted flag client expired
        Subject Public Key Info:
            Public Key Algorithm: rsaEncryption
                Public-Key: (1024 bit)
                Modulus:
                    00:c6:91:60:f6:20:94:92:49:8c:4d:0d:eb:eb:77:
                    03:06:6c:c1:ce:5d:29:60:44:5f:5f:f9:fd:fb:62:
                    8b:bc:08:45:e0:9d:4c:21:68:f8:d0:4d:c5:21:37:
                    55:a6:bb:bd:60:aa:2c:3d:45:29:c7:0e:ac:62:61:
                    db:53:65:79:c6:10:16:06:ae:40:66:cc:7c:40:33:
                    d4:1b:c7:85:39:1a:5b:e8:dc:17:61:a8:56:5c:18:
                    31:ba:7e:fb:b6:6a:56:1b:45:c5:ab:b5:72:6e:87:
                    80:6b:72:25:df:4e:2a:3d:1c:23:21:84:3f:7f:8a:
                    19:92:ee:0b:fc:b2:bd:98:f3
                Exponent: 65537 (0x10001)
        X509v3 extensions:
            X509v3 Basic Constraints: 
                CA:FALSE
            X509v3 Key Usage: critical
                Digital Signature, Non Repudiation, Key Encipherment
            Netscape Comment: 
                OpenSSL Generated Client Certificate with key usage
    Signature Algorithm: sha1WithRSAEncryption
        a5:8b:5c:44:91:90:b7:bd:dc:72:4d:ba:90:2f:1d:bf:89:0e:
        f8:7d:31:14:b4:85:96:f0:fe:4a:b0:f9:b9:53:ce:b0:c8:35:
        05:3a:de:74:29:e7:5f:35:d0:1e:bf:dd:2b:8b:f5:47:b1:6d:
        24:1e:af:3b:83:41:6e:d0:74:e5:78:10:39:00:77:1e:36:27:
        0b:d2:23:68:c6:c6:f1:7f:9a:e3:ba:90:be:dc:52:14:79:6a:
        0d:3a:d6:dc:a6:d7:d5:35:b8:46:6b:08:3e:4d:68:aa:71:4f:
        bb:14:ed:ad:23:64:0f:29:d3:ed:b0:41:b0:cf:b9:18:60:eb:
        20:e3
-----BEGIN CERTIFICATE-----
MIICnzCCAgigAwIBAgICAZYwDQYJKoZIhvcNAQEFBQAwXTELMAkGA1UEBhMCVUcx
DzANBgNVBAcTBlRyb3BpYzEPMA0GA1UEChMGVXRvcGlhMRMwEQYDVQQLEwpSZWxh
eGF0aW9uMRcwFQYDVQQDEw50aGUgdHJ1c3RlZCBDQTAeFw0xMjAyMDkxODQ3NDZa
Fw0xMjAyMDgxODQ3NDZaMGoxCzAJBgNVBAYTAlVHMQ8wDQYDVQQHEwZUcm9waWMx
DzANBgNVBAoTBlV0b3BpYTETMBEGA1UECxMKUmVsYXhhdGlvbjEkMCIGA1UEAxMb
dHJ1c3RlZCBmbGFnIGNsaWVudCBleHBpcmVkMIGfMA0GCSqGSIb3DQEBAQUAA4GN
ADCBiQKBgQDGkWD2IJSSSYxNDevrdwMGbMHOXSlgRF9f+f37You8CEXgnUwhaPjQ
TcUhN1Wmu71gqiw9RSnHDqxiYdtTZXnGEBYGrkBmzHxAM9Qbx4U5Glvo3BdhqFZc
GDG6fvu2alYbRcWrtXJuh4BrciXfTio9HCMhhD9/ihmS7gv8sr2Y8wIDAQABo2Ew
XzAJBgNVHRMEAjAAMA4GA1UdDwEB/wQEAwIF4DBCBglghkgBhvhCAQ0ENRYzT3Bl
blNTTCBHZW5lcmF0ZWQgQ2xpZW50IENlcnRpZmljYXRlIHdpdGgga2V5IHVzYWdl
MA0GCSqGSIb3DQEBBQUAA4GBAKWLXESRkLe93HJNupAvHb+JDvh9MRS0hZbw/kqw
+blTzrDINQU63nQp51810B6/3SuL9UexbSQerzuDQW7QdOV4EDkAdx42JwvSI2jG
xvF/muO6kL7cUhR5ag061tym19U1uEZrCD5NaKpxT7sU7a0jZA8p0+2wQbDPuRhg
6yDj
-----END CERTIFICATE-----
