Certificate:
    Data:
        Version: 3 (0x2)
        Serial Number: 384 (0x180)
        Signature Algorithm: sha1WithRSAEncryption
        Issuer: C=UG, L=Tropic, O=Utopia, OU=Relaxation, CN=the trusted CA
        Validity
            Not Before: Feb  9 18:47:33 2012 GMT
            Not After : Oct 18 18:47:33 2025 GMT
        Subject: C=UG, L=Tropic, O=http://slash.slash.edu:7656/testing, OU=Relaxation, CN=trusted client slash
        Subject Public Key Info:
            Public Key Algorithm: rsaEncryption
                Public-Key: (1024 bit)
                Modulus:
                    00:c7:57:8b:fb:33:67:34:3f:d8:ce:b2:9b:52:cb:
                    93:9e:26:95:a6:3a:a9:6c:05:45:ab:18:e6:bc:f1:
                    c2:ca:ad:52:c9:dd:23:48:03:50:03:c1:a3:f9:86:
                    4b:cd:2e:43:71:5c:7a:ab:9f:c2:9c:4e:a3:bb:8a:
                    57:9d:52:02:01:56:00:2a:07:99:eb:10:f0:e3:a5:
                    ec:b0:a3:ba:b8:3b:e0:99:02:f6:a3:a1:3b:92:bc:
                    eb:1e:0d:6e:98:42:47:64:b7:f0:e1:14:42:b0:1c:
                    fa:1c:5c:25:0a:3c:c3:4c:88:7e:4c:99:d2:bd:8a:
                    8c:24:60:88:de:9a:7c:75:43
                Exponent: 65537 (0x10001)
        X509v3 extensions:
            X509v3 Basic Constraints: 
                CA:FALSE
            X509v3 Key Usage: critical
                Digital Signature, Non Repudiation, Key Encipherment
            Netscape Cert Type: 
                SSL Client, S/MIME
            Netscape Comment: 
                OpenSSL Generated Client Certificate
    Signature Algorithm: sha1WithRSAEncryption
        a0:86:26:8f:69:6c:52:7c:b6:a8:70:67:03:e1:bb:06:ca:d2:
        fd:28:0e:fd:63:40:c1:6b:c8:9c:45:80:fe:23:f9:57:4a:6b:
        4e:29:18:e7:fe:50:5e:fc:86:95:f6:5f:18:58:77:31:ad:71:
        52:c5:ef:21:83:b1:e9:3b:ac:64:80:5d:ed:3c:0d:ff:e7:d8:
        d3:c4:e6:14:04:1f:dd:95:72:60:de:51:61:be:93:5f:fa:ba:
        c3:86:bd:73:7c:65:71:96:27:b2:f7:06:37:ec:5a:63:83:58:
        63:19:c0:0e:d1:52:3d:44:c1:f4:78:82:eb:35:e7:00:47:b8:
        12:94
-----BEGIN CERTIFICATE-----
MIICujCCAiOgAwIBAgICAYAwDQYJKoZIhvcNAQEFBQAwXTELMAkGA1UEBhMCVUcx
DzANBgNVBAcTBlRyb3BpYzEPMA0GA1UEChMGVXRvcGlhMRMwEQYDVQQLEwpSZWxh
eGF0aW9uMRcwFQYDVQQDEw50aGUgdHJ1c3RlZCBDQTAeFw0xMjAyMDkxODQ3MzNa
Fw0yNTEwMTgxODQ3MzNaMIGAMQswCQYDVQQGEwJVRzEPMA0GA1UEBxMGVHJvcGlj
MSwwKgYDVQQKEyNodHRwOi8vc2xhc2guc2xhc2guZWR1Ojc2NTYvdGVzdGluZzET
MBEGA1UECxMKUmVsYXhhdGlvbjEdMBsGA1UEAxMUdHJ1c3RlZCBjbGllbnQgc2xh
c2gwgZ8wDQYJKoZIhvcNAQEBBQADgY0AMIGJAoGBAMdXi/szZzQ/2M6ym1LLk54m
laY6qWwFRasY5rzxwsqtUsndI0gDUAPBo/mGS80uQ3FcequfwpxOo7uKV51SAgFW
ACoHmesQ8OOl7LCjurg74JkC9qOhO5K86x4NbphCR2S38OEUQrAc+hxcJQo8w0yI
fkyZ0r2KjCRgiN6afHVDAgMBAAGjZTBjMAkGA1UdEwQCMAAwDgYDVR0PAQH/BAQD
AgXgMBEGCWCGSAGG+EIBAQQEAwIFoDAzBglghkgBhvhCAQ0EJhYkT3BlblNTTCBH
ZW5lcmF0ZWQgQ2xpZW50IENlcnRpZmljYXRlMA0GCSqGSIb3DQEBBQUAA4GBAKCG
Jo9pbFJ8tqhwZwPhuwbK0v0oDv1jQMFryJxFgP4j+VdKa04pGOf+UF78hpX2XxhY
dzGtcVLF7yGDsek7rGSAXe08Df/n2NPE5hQEH92VcmDeUWG+k1/6usOGvXN8ZXGW
J7L3BjfsWmODWGMZwA7RUj1EwfR4gus15wBHuBKU
-----END CERTIFICATE-----
