Certificate:
    Data:
        Version: 3 (0x2)
        Serial Number: 400 (0x190)
        Signature Algorithm: sha1WithRSAEncryption
        Issuer: C=UG, L=Tropic, O=Utopia, OU=Relaxation, CN=the trusted CA
        Validity
            Not Before: Feb  9 18:47:45 2012 GMT
            Not After : Oct 18 18:47:45 2025 GMT
        Subject: C=UG, L=Tropic, O=Utopia, OU=Relaxation, CN=trusted altname cont hostname, CN=pchip10.cern.ch
        Subject Public Key Info:
            Public Key Algorithm: rsaEncryption
                Public-Key: (1024 bit)
                Modulus:
                    00:ab:98:16:0d:97:16:bb:22:56:7b:ff:aa:7a:a6:
                    4f:c6:7e:b3:89:41:df:7f:31:5d:eb:42:c9:cc:4a:
                    f0:93:c7:0f:63:13:dd:66:9e:e6:50:72:92:d3:73:
                    f4:b2:8e:8d:35:c7:67:35:5b:73:de:64:cc:76:c7:
                    f1:a3:f4:55:ee:57:3a:69:82:9a:c7:36:96:af:a3:
                    07:07:95:ce:0e:8f:f2:91:40:cf:08:22:94:ac:36:
                    92:71:6b:c7:62:f6:11:69:7f:bf:4e:8a:d9:7e:a2:
                    95:ed:9c:34:6f:1a:3c:bd:fe:96:4e:45:f5:ba:50:
                    0c:64:b3:dc:ea:7c:97:ef:4f
                Exponent: 65537 (0x10001)
        X509v3 extensions:
            X509v3 Basic Constraints: 
                CA:FALSE
            X509v3 Key Usage: critical
                Digital Signature, Non Repudiation, Key Encipherment
            Netscape Cert Type: 
                SSL Server
            Netscape Comment: 
                OpenSSL Generated Server Certificate
            X509v3 Subject Alternative Name: 
                DNS:pchip10.cern.ch
    Signature Algorithm: sha1WithRSAEncryption
        7c:15:34:67:12:7a:5f:59:85:b7:a2:fc:33:a1:3d:81:82:e3:
        db:e1:71:f0:8c:39:9b:4e:6f:90:79:52:8a:d5:a7:e7:59:8b:
        5d:21:cc:02:c9:7f:0a:a6:a7:78:6c:c2:0b:e5:ee:9e:56:2f:
        34:79:c2:45:bb:fe:cb:80:b3:2f:08:c0:47:5f:d2:51:d6:72:
        d0:e1:ff:58:54:55:3d:69:bf:22:7a:d2:33:ac:2a:37:06:5f:
        64:a6:50:6d:de:64:af:cf:e0:a8:fa:34:b5:f8:a2:c4:02:0c:
        1e:61:6e:e8:35:1c:0f:c3:ce:5c:42:ff:86:d8:9e:03:c7:5d:
        ae:01
-----BEGIN CERTIFICATE-----
MIIC3TCCAkagAwIBAgICAZAwDQYJKoZIhvcNAQEFBQAwXTELMAkGA1UEBhMCVUcx
DzANBgNVBAcTBlRyb3BpYzEPMA0GA1UEChMGVXRvcGlhMRMwEQYDVQQLEwpSZWxh
eGF0aW9uMRcwFQYDVQQDEw50aGUgdHJ1c3RlZCBDQTAeFw0xMjAyMDkxODQ3NDVa
Fw0yNTEwMTgxODQ3NDVaMIGGMQswCQYDVQQGEwJVRzEPMA0GA1UEBxMGVHJvcGlj
MQ8wDQYDVQQKEwZVdG9waWExEzARBgNVBAsTClJlbGF4YXRpb24xJjAkBgNVBAMT
HXRydXN0ZWQgYWx0bmFtZSBjb250IGhvc3RuYW1lMRgwFgYDVQQDEw9wY2hpcDEw
LmNlcm4uY2gwgZ8wDQYJKoZIhvcNAQEBBQADgY0AMIGJAoGBAKuYFg2XFrsiVnv/
qnqmT8Z+s4lB338xXetCycxK8JPHD2MT3Wae5lByktNz9LKOjTXHZzVbc95kzHbH
8aP0Ve5XOmmCmsc2lq+jBweVzg6P8pFAzwgilKw2knFrx2L2EWl/v06K2X6ile2c
NG8aPL3+lk5F9bpQDGSz3Op8l+9PAgMBAAGjgYEwfzAJBgNVHRMEAjAAMA4GA1Ud
DwEB/wQEAwIF4DARBglghkgBhvhCAQEEBAMCBkAwMwYJYIZIAYb4QgENBCYWJE9w
ZW5TU0wgR2VuZXJhdGVkIFNlcnZlciBDZXJ0aWZpY2F0ZTAaBgNVHREEEzARgg9w
Y2hpcDEwLmNlcm4uY2gwDQYJKoZIhvcNAQEFBQADgYEAfBU0ZxJ6X1mFt6L8M6E9
gYLj2+Fx8Iw5m05vkHlSitWn51mLXSHMAsl/CqaneGzCC+XunlYvNHnCRbv+y4Cz
LwjAR1/SUdZy0OH/WFRVPWm/InrSM6wqNwZfZKZQbd5kr8/gqPo0tfiixAIMHmFu
6DUcD8POXEL/htieA8ddrgE=
-----END CERTIFICATE-----
