Certificate:
    Data:
        Version: 3 (0x2)
        Serial Number: 378 (0x17a)
        Signature Algorithm: sha384WithRSAEncryption
        Issuer: C=UG, L=Tropic, O=Utopia, OU=Relaxation, CN=the trusted CA
        Validity
            Not Before: Feb  9 18:47:31 2012 GMT
            Not After : Oct 18 18:47:31 2025 GMT
        Subject: C=UG, L=Tropic, O=Utopia, OU=Relaxation, CN=trusted client with sha384 hash
        Subject Public Key Info:
            Public Key Algorithm: rsaEncryption
                Public-Key: (1024 bit)
                Modulus:
                    00:de:15:04:85:6a:db:de:a4:2f:bb:56:f4:bb:4b:
                    17:dd:55:8c:43:65:8b:c1:8e:0e:de:04:01:83:5c:
                    23:10:82:d0:36:9e:fd:68:b8:6a:ad:29:ff:28:84:
                    a2:76:7e:3c:a7:5f:19:35:04:82:ac:bf:82:9a:42:
                    72:45:07:4a:95:3f:22:ea:75:a3:4b:b8:18:7e:20:
                    7e:5b:d0:0b:a3:9f:f4:a7:63:7d:0e:ef:3f:9e:07:
                    28:c0:87:44:38:09:5c:83:54:b7:e3:d0:33:c9:6f:
                    ce:ac:f1:b8:25:e1:8f:22:24:a9:90:78:f4:1e:8d:
                    74:7e:fd:9d:64:53:8c:c0:db
                Exponent: 65537 (0x10001)
        X509v3 extensions:
            X509v3 Basic Constraints: 
                CA:FALSE
            X509v3 Key Usage: critical
                Digital Signature, Non Repudiation, Key Encipherment
            Netscape Cert Type: 
                SSL Client, S/MIME
            Netscape Comment: 
                OpenSSL Generated Client Certificate
    Signature Algorithm: sha384WithRSAEncryption
        1a:03:6c:58:4e:51:14:fa:bc:57:1f:10:1d:b6:0a:db:5c:8b:
        20:bc:d7:65:8e:af:2e:d1:7a:ea:28:e7:45:3d:15:c3:1b:12:
        42:21:4b:d9:92:c7:7e:db:34:e6:af:cc:a5:a9:d2:c7:e6:49:
        e1:59:02:22:15:14:e6:26:ec:f9:58:60:53:25:0a:b8:11:ef:
        b0:6b:cb:95:3a:4c:b0:ca:5e:7a:48:53:a1:7e:7e:70:8a:47:
        0f:f9:c2:6a:8b:7d:18:b1:9c:0b:e5:dc:45:8e:25:91:48:76:
        9e:10:bd:98:2a:ee:6b:52:62:e4:0f:49:47:a8:1a:a5:d1:13:
        90:4b
-----BEGIN CERTIFICATE-----
MIICpzCCAhCgAwIBAgICAXowDQYJKoZIhvcNAQEMBQAwXTELMAkGA1UEBhMCVUcx
DzANBgNVBAcTBlRyb3BpYzEPMA0GA1UEChMGVXRvcGlhMRMwEQYDVQQLEwpSZWxh
eGF0aW9uMRcwFQYDVQQDEw50aGUgdHJ1c3RlZCBDQTAeFw0xMjAyMDkxODQ3MzFa
Fw0yNTEwMTgxODQ3MzFaMG4xCzAJBgNVBAYTAlVHMQ8wDQYDVQQHEwZUcm9waWMx
DzANBgNVBAoTBlV0b3BpYTETMBEGA1UECxMKUmVsYXhhdGlvbjEoMCYGA1UEAxMf
dHJ1c3RlZCBjbGllbnQgd2l0aCBzaGEzODQgaGFzaDCBnzANBgkqhkiG9w0BAQEF
AAOBjQAwgYkCgYEA3hUEhWrb3qQvu1b0u0sX3VWMQ2WLwY4O3gQBg1wjEILQNp79
aLhqrSn/KISidn48p18ZNQSCrL+CmkJyRQdKlT8i6nWjS7gYfiB+W9ALo5/0p2N9
Du8/ngcowIdEOAlcg1S349AzyW/OrPG4JeGPIiSpkHj0Ho10fv2dZFOMwNsCAwEA
AaNlMGMwCQYDVR0TBAIwADAOBgNVHQ8BAf8EBAMCBeAwEQYJYIZIAYb4QgEBBAQD
AgWgMDMGCWCGSAGG+EIBDQQmFiRPcGVuU1NMIEdlbmVyYXRlZCBDbGllbnQgQ2Vy
dGlmaWNhdGUwDQYJKoZIhvcNAQEMBQADgYEAGgNsWE5RFPq8Vx8QHbYK21yLILzX
ZY6vLtF66ijnRT0VwxsSQiFL2ZLHfts05q/MpanSx+ZJ4VkCIhUU5ibs+VhgUyUK
uBHvsGvLlTpMsMpeekhToX5+cIpHD/nCaot9GLGcC+XcRY4lkUh2nhC9mCrua1Ji
5A9JR6gapdETkEs=
-----END CERTIFICATE-----
