Certificate:
    Data:
        Version: 3 (0x2)
        Serial Number: 411 (0x19b)
        Signature Algorithm: sha1WithRSAEncryption
        Issuer: C=UG, L=Tropic, O=Utopia, OU=Relaxation, CN=the trusted CA
        Validity
            Not Before: Feb  9 18:47:47 2012 GMT
            Not After : Oct 18 18:47:47 2025 GMT
        Subject: C=UG, L=Tropic, O=Utopia, OU=Relaxation, CN=trusted server revoked
        Subject Public Key Info:
            Public Key Algorithm: rsaEncryption
                Public-Key: (1024 bit)
                Modulus:
                    00:cc:80:11:2c:4b:a6:42:17:ac:40:c7:f6:a6:bb:
                    43:f1:dc:fe:74:0b:8b:3b:d4:a6:cd:5c:84:cd:ea:
                    d7:91:cd:5f:9a:c2:28:39:d7:7c:23:ea:cc:e7:b3:
                    c3:f9:86:43:b2:4c:e7:ff:54:ea:b1:e9:97:71:86:
                    22:be:23:84:97:76:eb:97:50:4b:2b:91:0d:66:d0:
                    a9:c3:b3:1a:63:6f:85:29:2e:d3:61:34:32:96:d4:
                    f3:3c:d9:8c:25:22:cd:17:6d:10:c6:83:57:d7:1c:
                    b7:d1:1e:ef:c1:66:19:00:55:a2:45:02:71:5f:fe:
                    91:1c:fc:52:b9:4e:31:ed:c5
                Exponent: 65537 (0x10001)
        X509v3 extensions:
            X509v3 Basic Constraints: 
                CA:FALSE
            X509v3 Key Usage: critical
                Digital Signature, Non Repudiation, Key Encipherment
            Netscape Cert Type: 
                SSL Server
            Netscape Comment: 
                OpenSSL Generated Server Certificate
    Signature Algorithm: sha1WithRSAEncryption
        94:a5:21:74:b6:55:58:15:c0:cf:a6:d6:16:c9:dd:1a:45:26:
        55:b4:cf:b1:7a:35:ca:c2:26:22:e1:b1:32:b7:53:50:05:c7:
        92:1a:61:28:10:8d:d1:8b:32:03:8d:ff:81:e0:92:d7:54:59:
        29:88:01:42:80:73:98:af:6a:fe:46:bc:c1:9b:16:85:01:62:
        8d:76:03:ed:3b:8f:b7:e6:85:d0:db:98:5b:c8:f7:ac:1e:24:
        28:8e:63:d8:42:b9:60:9f:9c:6f:df:56:2f:d3:d9:70:85:58:
        f4:15:7f:2e:30:71:66:8b:b9:1c:62:b8:91:aa:c7:0f:fb:fd:
        6a:95
-----BEGIN CERTIFICATE-----
MIICnjCCAgegAwIBAgICAZswDQYJKoZIhvcNAQEFBQAwXTELMAkGA1UEBhMCVUcx
DzANBgNVBAcTBlRyb3BpYzEPMA0GA1UEChMGVXRvcGlhMRMwEQYDVQQLEwpSZWxh
eGF0aW9uMRcwFQYDVQQDEw50aGUgdHJ1c3RlZCBDQTAeFw0xMjAyMDkxODQ3NDda
Fw0yNTEwMTgxODQ3NDdaMGUxCzAJBgNVBAYTAlVHMQ8wDQYDVQQHEwZUcm9waWMx
DzANBgNVBAoTBlV0b3BpYTETMBEGA1UECxMKUmVsYXhhdGlvbjEfMB0GA1UEAxMW
dHJ1c3RlZCBzZXJ2ZXIgcmV2b2tlZDCBnzANBgkqhkiG9w0BAQEFAAOBjQAwgYkC
gYEAzIARLEumQhesQMf2prtD8dz+dAuLO9SmzVyEzerXkc1fmsIoOdd8I+rM57PD
+YZDskzn/1TqsemXcYYiviOEl3brl1BLK5ENZtCpw7MaY2+FKS7TYTQyltTzPNmM
JSLNF20QxoNX1xy30R7vwWYZAFWiRQJxX/6RHPxSuU4x7cUCAwEAAaNlMGMwCQYD
VR0TBAIwADAOBgNVHQ8BAf8EBAMCBeAwEQYJYIZIAYb4QgEBBAQDAgZAMDMGCWCG
SAGG+EIBDQQmFiRPcGVuU1NMIEdlbmVyYXRlZCBTZXJ2ZXIgQ2VydGlmaWNhdGUw
DQYJKoZIhvcNAQEFBQADgYEAlKUhdLZVWBXAz6bWFsndGkUmVbTPsXo1ysImIuGx
MrdTUAXHkhphKBCN0YsyA43/geCS11RZKYgBQoBzmK9q/ka8wZsWhQFijXYD7TuP
t+aF0NuYW8j3rB4kKI5j2EK5YJ+cb99WL9PZcIVY9BV/LjBxZou5HGK4karHD/v9
apU=
-----END CERTIFICATE-----
