Certificate:
    Data:
        Version: 3 (0x2)
        Serial Number: 403 (0x193)
        Signature Algorithm: sha1WithRSAEncryption
        Issuer: C=UG, L=Tropic, O=Utopia, OU=Relaxation, CN=the trusted CA
        Validity
            Not Before: Feb  9 18:47:46 2012 GMT
            Not After : Oct 18 18:47:46 2025 GMT
        Subject: C=UG, L=Tropic, O=Utopia, OU=Relaxation, CN=xxx2.foo.bar
        Subject Public Key Info:
            Public Key Algorithm: rsaEncryption
                Public-Key: (1024 bit)
                Modulus:
                    00:b7:7b:a1:c7:68:12:37:6f:76:ee:dd:0f:55:68:
                    a0:97:87:d6:5f:bf:26:33:05:fd:cc:80:8b:8d:73:
                    c9:67:70:6a:9d:ac:ad:10:91:32:08:ee:c7:86:86:
                    99:fe:38:e4:e4:99:a9:5d:df:1b:e8:55:c8:cb:44:
                    0f:f5:3e:24:92:2e:49:e8:56:a3:47:b6:18:4e:46:
                    86:e1:c5:9b:6d:06:b7:de:1e:34:5f:ed:84:64:46:
                    c6:95:a4:79:7f:64:45:02:7b:7c:16:e0:17:26:ba:
                    b2:71:f9:9a:de:2d:cd:3e:06:02:a0:23:f8:51:49:
                    ac:01:44:35:a8:1d:fa:c7:45
                Exponent: 65537 (0x10001)
        X509v3 extensions:
            X509v3 Basic Constraints: 
                CA:FALSE
            X509v3 Key Usage: critical
                Digital Signature, Non Repudiation, Key Encipherment
            Netscape Cert Type: 
                SSL Server
            Netscape Comment: 
                OpenSSL Generated Server Certificate
    Signature Algorithm: sha1WithRSAEncryption
        14:71:4a:67:9a:0f:d2:75:2a:d4:04:7a:83:27:fb:72:23:f2:
        61:ea:70:85:33:5b:6c:01:2e:3c:9e:6a:34:42:c0:c7:45:cb:
        66:65:c7:94:76:88:87:6d:f8:0d:86:0c:81:6e:2f:76:f7:6d:
        00:78:d3:ab:dc:ed:e9:a3:43:03:bb:e7:cc:ef:72:ab:55:75:
        29:4f:12:32:bd:50:2b:22:07:36:cb:8e:6a:11:d1:29:3d:06:
        b2:cc:3e:08:79:94:67:11:73:60:5d:ae:5a:a5:e1:22:ba:14:
        b9:ef:35:55:f1:ab:5b:3c:87:2d:3a:40:b5:60:41:dd:b4:78:
        6a:f1
-----BEGIN CERTIFICATE-----
MIIClDCCAf2gAwIBAgICAZMwDQYJKoZIhvcNAQEFBQAwXTELMAkGA1UEBhMCVUcx
DzANBgNVBAcTBlRyb3BpYzEPMA0GA1UEChMGVXRvcGlhMRMwEQYDVQQLEwpSZWxh
eGF0aW9uMRcwFQYDVQQDEw50aGUgdHJ1c3RlZCBDQTAeFw0xMjAyMDkxODQ3NDZa
Fw0yNTEwMTgxODQ3NDZaMFsxCzAJBgNVBAYTAlVHMQ8wDQYDVQQHEwZUcm9waWMx
DzANBgNVBAoTBlV0b3BpYTETMBEGA1UECxMKUmVsYXhhdGlvbjEVMBMGA1UEAxMM
eHh4Mi5mb28uYmFyMIGfMA0GCSqGSIb3DQEBAQUAA4GNADCBiQKBgQC3e6HHaBI3
b3bu3Q9VaKCXh9ZfvyYzBf3MgIuNc8lncGqdrK0QkTII7seGhpn+OOTkmald3xvo
VcjLRA/1PiSSLknoVqNHthhORobhxZttBrfeHjRf7YRkRsaVpHl/ZEUCe3wW4Bcm
urJx+ZreLc0+BgKgI/hRSawBRDWoHfrHRQIDAQABo2UwYzAJBgNVHRMEAjAAMA4G
A1UdDwEB/wQEAwIF4DARBglghkgBhvhCAQEEBAMCBkAwMwYJYIZIAYb4QgENBCYW
JE9wZW5TU0wgR2VuZXJhdGVkIFNlcnZlciBDZXJ0aWZpY2F0ZTANBgkqhkiG9w0B
AQUFAAOBgQAUcUpnmg/SdSrUBHqDJ/tyI/Jh6nCFM1tsAS48nmo0QsDHRctmZceU
doiHbfgNhgyBbi92920AeNOr3O3po0MDu+fM73KrVXUpTxIyvVArIgc2y45qEdEp
PQayzD4IeZRnEXNgXa5apeEiuhS57zVV8atbPIctOkC1YEHdtHhq8Q==
-----END CERTIFICATE-----
