Certificate:
    Data:
        Version: 3 (0x2)
        Serial Number: 405 (0x195)
        Signature Algorithm: sha1WithRSAEncryption
        Issuer: C=UG, L=Tropic, O=Utopia, OU=Relaxation, CN=the trusted CA
        Validity
            Not Before: Feb  9 18:47:46 2012 GMT
            Not After : Oct 18 18:47:46 2025 GMT
        Subject: C=UG, L=Tropic, O=Utopia, OU=Relaxation, CN=trusted none
        Subject Public Key Info:
            Public Key Algorithm: rsaEncryption
                Public-Key: (1024 bit)
                Modulus:
                    00:ea:73:f8:9f:9d:45:32:cc:68:5d:8b:a9:19:fa:
                    74:fc:fe:8a:b3:6e:e9:9a:f4:6d:66:8f:c6:70:d2:
                    8b:a3:3a:4a:28:4c:0e:29:2f:b2:6e:30:2c:ad:65:
                    1b:6c:8d:f0:b9:94:1f:c1:58:12:c5:f7:09:19:f0:
                    db:2b:3e:16:97:67:8e:e2:0d:9d:b2:ab:51:13:f1:
                    72:0a:06:6e:2f:d1:cc:0e:b1:e7:98:83:6f:55:75:
                    4e:b8:6e:bc:f0:b3:e1:e8:95:1d:63:30:7b:53:11:
                    95:5e:d8:d7:27:3d:c7:47:b4:06:05:fa:0e:82:ab:
                    d9:61:1e:46:c4:7f:16:cc:d5
                Exponent: 65537 (0x10001)
        X509v3 extensions:
            Netscape Comment: 
                OpenSSL Generated Client Certificate without Flags
    Signature Algorithm: sha1WithRSAEncryption
        a9:4c:c6:87:cd:b7:2d:94:1d:e5:cb:95:29:22:51:92:7d:04:
        5a:9d:a2:e3:b5:ae:55:5a:df:38:da:05:99:ea:93:cf:2d:c0:
        bd:e0:64:f5:a8:b6:05:50:dc:08:c8:8b:f2:74:95:31:c0:17:
        bc:42:f1:73:80:aa:39:43:e9:ff:e4:d6:32:17:a3:fc:cc:b7:
        0b:95:2b:ef:49:0d:ef:56:3e:13:e0:cb:36:e0:ff:81:82:60:
        bf:27:73:47:a9:8d:16:43:83:21:0b:d5:d4:67:0f:02:e0:29:
        bc:93:88:b2:bd:18:89:8f:6d:aa:44:44:fb:5d:a1:5a:38:30:
        73:b2
-----BEGIN CERTIFICATE-----
MIICdDCCAd2gAwIBAgICAZUwDQYJKoZIhvcNAQEFBQAwXTELMAkGA1UEBhMCVUcx
DzANBgNVBAcTBlRyb3BpYzEPMA0GA1UEChMGVXRvcGlhMRMwEQYDVQQLEwpSZWxh
eGF0aW9uMRcwFQYDVQQDEw50aGUgdHJ1c3RlZCBDQTAeFw0xMjAyMDkxODQ3NDZa
Fw0yNTEwMTgxODQ3NDZaMFsxCzAJBgNVBAYTAlVHMQ8wDQYDVQQHEwZUcm9waWMx
DzANBgNVBAoTBlV0b3BpYTETMBEGA1UECxMKUmVsYXhhdGlvbjEVMBMGA1UEAxMM
dHJ1c3RlZCBub25lMIGfMA0GCSqGSIb3DQEBAQUAA4GNADCBiQKBgQDqc/ifnUUy
zGhdi6kZ+nT8/oqzbuma9G1mj8Zw0oujOkooTA4pL7JuMCytZRtsjfC5lB/BWBLF
9wkZ8NsrPhaXZ47iDZ2yq1ET8XIKBm4v0cwOseeYg29VdU64brzws+HolR1jMHtT
EZVe2NcnPcdHtAYF+g6Cq9lhHkbEfxbM1QIDAQABo0UwQzBBBglghkgBhvhCAQ0E
NBYyT3BlblNTTCBHZW5lcmF0ZWQgQ2xpZW50IENlcnRpZmljYXRlIHdpdGhvdXQg
RmxhZ3MwDQYJKoZIhvcNAQEFBQADgYEAqUzGh823LZQd5cuVKSJRkn0EWp2i47Wu
VVrfONoFmeqTzy3AveBk9ai2BVDcCMiL8nSVMcAXvELxc4CqOUPp/+TWMhej/My3
C5Ur70kN71Y+E+DLNuD/gYJgvydzR6mNFkODIQvV1GcPAuApvJOIsr0YiY9tqkRE
+12hWjgwc7I=
-----END CERTIFICATE-----
