Certificate:
    Data:
        Version: 3 (0x2)
        Serial Number: 379 (0x17b)
        Signature Algorithm: sha512WithRSAEncryption
        Issuer: C=UG, L=Tropic, O=Utopia, OU=Relaxation, CN=the trusted CA
        Validity
            Not Before: Feb  9 18:47:31 2012 GMT
            Not After : Oct 18 18:47:31 2025 GMT
        Subject: C=UG, L=Tropic, O=Utopia, OU=Relaxation, CN=trusted client with sha512 hash
        Subject Public Key Info:
            Public Key Algorithm: rsaEncryption
                Public-Key: (1024 bit)
                Modulus:
                    00:c3:35:86:d4:06:9a:61:c1:31:e4:2c:16:d6:a5:
                    af:9c:9c:ab:a3:5b:b3:ef:f4:53:fa:7e:b9:3e:ff:
                    b0:84:ef:fe:fe:ed:bb:f9:09:f1:23:16:30:33:ef:
                    a6:bd:eb:6a:7f:47:a4:36:59:30:44:9c:d0:69:60:
                    33:c0:38:0e:80:6d:29:fc:41:c8:46:5b:2c:5e:b8:
                    4f:22:a2:f7:95:fc:4c:d7:fd:5e:ca:15:89:d6:b2:
                    0b:bd:06:95:92:27:f5:8d:e2:2f:26:c9:d9:8d:72:
                    66:cd:d1:af:1c:86:b2:76:eb:f3:53:4f:a7:f1:dc:
                    ff:d0:83:b9:07:72:f0:19:8b
                Exponent: 65537 (0x10001)
        X509v3 extensions:
            X509v3 Basic Constraints: 
                CA:FALSE
            X509v3 Key Usage: critical
                Digital Signature, Non Repudiation, Key Encipherment
            Netscape Cert Type: 
                SSL Client, S/MIME
            Netscape Comment: 
                OpenSSL Generated Client Certificate
    Signature Algorithm: sha512WithRSAEncryption
        99:59:7a:3b:78:a1:49:28:ca:73:9b:b7:c5:78:01:d3:d4:34:
        f0:f3:d3:3e:d0:6e:f3:a7:7f:43:13:61:9f:b8:1b:9b:20:a5:
        11:80:33:e8:2d:eb:0e:cd:72:1f:d7:82:1f:90:6b:f6:80:fe:
        6f:b4:79:83:e7:a4:5e:e0:27:e2:b0:b3:2f:7b:ac:79:d8:e2:
        5a:15:6b:1a:c0:d3:9c:5e:f9:20:62:aa:13:fa:1f:55:60:ce:
        d1:d4:61:70:9e:52:de:2d:00:34:8f:e1:05:3d:4c:54:d9:c3:
        4f:f9:f9:b1:67:1a:56:bd:01:a9:60:0f:ae:82:1a:54:ec:15:
        89:8c
-----BEGIN CERTIFICATE-----
MIICpzCCAhCgAwIBAgICAXswDQYJKoZIhvcNAQENBQAwXTELMAkGA1UEBhMCVUcx
DzANBgNVBAcTBlRyb3BpYzEPMA0GA1UEChMGVXRvcGlhMRMwEQYDVQQLEwpSZWxh
eGF0aW9uMRcwFQYDVQQDEw50aGUgdHJ1c3RlZCBDQTAeFw0xMjAyMDkxODQ3MzFa
Fw0yNTEwMTgxODQ3MzFaMG4xCzAJBgNVBAYTAlVHMQ8wDQYDVQQHEwZUcm9waWMx
DzANBgNVBAoTBlV0b3BpYTETMBEGA1UECxMKUmVsYXhhdGlvbjEoMCYGA1UEAxMf
dHJ1c3RlZCBjbGllbnQgd2l0aCBzaGE1MTIgaGFzaDCBnzANBgkqhkiG9w0BAQEF
AAOBjQAwgYkCgYEAwzWG1AaaYcEx5CwW1qWvnJyro1uz7/RT+n65Pv+whO/+/u27
+QnxIxYwM++mvetqf0ekNlkwRJzQaWAzwDgOgG0p/EHIRlssXrhPIqL3lfxM1/1e
yhWJ1rILvQaVkif1jeIvJsnZjXJmzdGvHIayduvzU0+n8dz/0IO5B3LwGYsCAwEA
AaNlMGMwCQYDVR0TBAIwADAOBgNVHQ8BAf8EBAMCBeAwEQYJYIZIAYb4QgEBBAQD
AgWgMDMGCWCGSAGG+EIBDQQmFiRPcGVuU1NMIEdlbmVyYXRlZCBDbGllbnQgQ2Vy
dGlmaWNhdGUwDQYJKoZIhvcNAQENBQADgYEAmVl6O3ihSSjKc5u3xXgB09Q08PPT
PtBu86d/QxNhn7gbmyClEYAz6C3rDs1yH9eCH5Br9oD+b7R5g+ekXuAn4rCzL3us
edjiWhVrGsDTnF75IGKqE/ofVWDO0dRhcJ5S3i0ANI/hBT1MVNnDT/n5sWcaVr0B
qWAProIaVOwViYw=
-----END CERTIFICATE-----
