Certificate:
    Data:
        Version: 3 (0x2)
        Serial Number: 389 (0x185)
        Signature Algorithm: sha1WithRSAEncryption
        Issuer: C=UG, L=Tropic, O=Utopia, OU=Relaxation, CN=the trusted CA
        Validity
            Not Before: Feb  9 18:47:35 2012 GMT
            Not After : Oct 18 18:47:35 2025 GMT
        Subject: C=UG, L=Tropic, O=Utopia, OU=Relaxation, CN=trusted bigclient
        Subject Public Key Info:
            Public Key Algorithm: rsaEncryption
                Public-Key: (4096 bit)
                Modulus:
                    00:ae:f9:57:80:75:1a:e4:40:8b:98:4f:05:87:89:
                    7e:c5:73:39:a0:ba:54:ef:42:10:62:2b:d1:49:af:
                    57:50:c0:21:ad:92:96:55:87:bc:f3:a1:b6:c6:1b:
                    ac:43:5d:ae:9c:2d:60:db:f3:07:26:ee:bd:b9:42:
                    54:bc:e0:28:ef:44:6d:72:6b:6f:fc:5e:9e:68:d7:
                    1d:02:06:0d:fa:97:be:f1:be:09:2b:d4:31:9b:e2:
                    a2:b7:3f:c9:b7:40:cb:3c:26:82:15:07:bf:75:c9:
                    0b:e1:14:fb:6a:ac:3c:20:6d:33:a6:1e:6e:80:6d:
                    dd:d9:d8:24:c5:f7:c1:e5:7e:d4:bd:ca:c7:f3:8c:
                    49:0a:ff:84:29:fd:a3:d4:66:0b:d6:f4:13:42:b5:
                    89:71:31:d8:88:f7:43:9c:a5:0c:22:54:cc:06:ad:
                    5c:aa:d2:bc:8f:07:fa:54:27:8e:69:4e:2c:01:19:
                    36:2e:c4:33:e3:3d:27:37:ae:25:9e:3d:0d:dd:6f:
                    de:21:ad:7d:00:0a:bd:4e:5c:18:c7:77:b4:cc:11:
                    b4:ab:16:29:22:a6:53:4f:d2:e9:2e:41:d8:83:7f:
                    11:29:19:e6:5c:e5:98:60:f8:f4:27:58:c8:19:82:
                    38:1d:72:3e:d5:b2:37:73:76:9f:7d:cc:90:f3:d8:
                    83:dd:a9:a4:5c:12:65:25:71:8c:19:28:f5:88:0b:
                    bf:0c:b8:96:60:88:70:01:06:0e:02:f8:81:3f:08:
                    e7:80:5f:1a:01:d6:f2:22:3f:d4:ec:fd:84:2e:b9:
                    57:56:ab:da:ff:8e:3c:5a:5f:cc:b2:5d:90:17:1b:
                    ea:ae:a0:d6:86:2c:be:80:66:14:c7:7b:69:06:38:
                    f6:5c:15:c0:94:5d:c9:4a:f0:a3:5b:37:9b:f9:fd:
                    d2:20:60:ae:7f:e6:e4:28:f1:6c:23:aa:2c:b9:6c:
                    0b:83:e7:d1:08:2d:e4:2c:bd:13:e0:42:d0:6a:91:
                    a2:9a:23:82:c6:9c:e6:7d:35:ae:eb:c7:aa:bc:0b:
                    63:a9:94:03:56:5e:83:90:7b:a8:1b:41:19:f7:11:
                    73:8a:b2:59:b1:3f:52:bf:95:d7:9c:81:07:23:74:
                    3a:8a:89:26:97:a9:ed:fe:ee:22:2a:9d:3b:ec:cb:
                    96:5a:1e:40:34:e5:d0:f4:bd:35:27:a2:95:f1:d4:
                    6a:8e:d4:35:d9:2b:d8:d9:72:ef:c2:cf:39:89:91:
                    d8:22:8c:2e:6d:9c:41:17:d4:d0:fb:ee:fe:c5:b1:
                    69:40:82:22:0b:71:01:39:23:77:52:1d:fd:42:5a:
                    0d:19:63:86:db:22:7f:e2:07:7d:6c:e0:73:2a:e6:
                    ad:7c:f9
                Exponent: 65537 (0x10001)
        X509v3 extensions:
            X509v3 Basic Constraints: 
                CA:FALSE
            X509v3 Key Usage: critical
                Digital Signature, Non Repudiation, Key Encipherment
            Netscape Cert Type: 
                SSL Client, S/MIME
            Netscape Comment: 
                OpenSSL Generated Client Certificate
    Signature Algorithm: sha1WithRSAEncryption
        66:f6:58:ce:c8:a4:60:f0:eb:02:cd:13:32:0d:2e:d3:32:3b:
        64:51:c4:48:f6:78:bc:65:34:de:02:55:a5:df:e6:1d:61:14:
        af:66:7e:43:4f:65:0b:70:3e:77:c0:08:41:06:11:d2:42:a5:
        b7:e4:1f:72:03:cf:79:63:0e:39:b9:18:9b:63:fb:7e:a6:6d:
        53:61:4a:ad:d9:93:98:7e:c9:0a:d0:5f:6d:b4:f7:47:65:2d:
        f9:fa:13:18:2a:e2:c2:ef:f9:97:c1:04:73:c8:86:4f:cc:12:
        cd:32:8c:d5:14:4a:fd:a2:94:1d:61:b1:8a:44:16:c4:7d:71:
        14:3a
-----BEGIN CERTIFICATE-----
MIIEHTCCA4agAwIBAgICAYUwDQYJKoZIhvcNAQEFBQAwXTELMAkGA1UEBhMCVUcx
DzANBgNVBAcTBlRyb3BpYzEPMA0GA1UEChMGVXRvcGlhMRMwEQYDVQQLEwpSZWxh
eGF0aW9uMRcwFQYDVQQDEw50aGUgdHJ1c3RlZCBDQTAeFw0xMjAyMDkxODQ3MzVa
Fw0yNTEwMTgxODQ3MzVaMGAxCzAJBgNVBAYTAlVHMQ8wDQYDVQQHEwZUcm9waWMx
DzANBgNVBAoTBlV0b3BpYTETMBEGA1UECxMKUmVsYXhhdGlvbjEaMBgGA1UEAxMR
dHJ1c3RlZCBiaWdjbGllbnQwggIiMA0GCSqGSIb3DQEBAQUAA4ICDwAwggIKAoIC
AQCu+VeAdRrkQIuYTwWHiX7FczmgulTvQhBiK9FJr1dQwCGtkpZVh7zzobbGG6xD
Xa6cLWDb8wcm7r25QlS84CjvRG1ya2/8Xp5o1x0CBg36l77xvgkr1DGb4qK3P8m3
QMs8JoIVB791yQvhFPtqrDwgbTOmHm6Abd3Z2CTF98HlftS9ysfzjEkK/4Qp/aPU
ZgvW9BNCtYlxMdiI90OcpQwiVMwGrVyq0ryPB/pUJ45pTiwBGTYuxDPjPSc3riWe
PQ3db94hrX0ACr1OXBjHd7TMEbSrFikiplNP0ukuQdiDfxEpGeZc5Zhg+PQnWMgZ
gjgdcj7Vsjdzdp99zJDz2IPdqaRcEmUlcYwZKPWIC78MuJZgiHABBg4C+IE/COeA
XxoB1vIiP9Ts/YQuuVdWq9r/jjxaX8yyXZAXG+quoNaGLL6AZhTHe2kGOPZcFcCU
XclK8KNbN5v5/dIgYK5/5uQo8Wwjqiy5bAuD59EILeQsvRPgQtBqkaKaI4LGnOZ9
Na7rx6q8C2OplANWXoOQe6gbQRn3EXOKslmxP1K/ldecgQcjdDqKiSaXqe3+7iIq
nTvsy5ZaHkA05dD0vTUnopXx1GqO1DXZK9jZcu/CzzmJkdgijC5tnEEX1ND77v7F
sWlAgiILcQE5I3dSHf1CWg0ZY4bbIn/iB31s4HMq5q18+QIDAQABo2UwYzAJBgNV
HRMEAjAAMA4GA1UdDwEB/wQEAwIF4DARBglghkgBhvhCAQEEBAMCBaAwMwYJYIZI
AYb4QgENBCYWJE9wZW5TU0wgR2VuZXJhdGVkIENsaWVudCBDZXJ0aWZpY2F0ZTAN
BgkqhkiG9w0BAQUFAAOBgQBm9ljOyKRg8OsCzRMyDS7TMjtkUcRI9ni8ZTTeAlWl
3+YdYRSvZn5DT2ULcD53wAhBBhHSQqW35B9yA895Yw45uRibY/t+pm1TYUqt2ZOY
fskK0F9ttPdHZS35+hMYKuLC7/mXwQRzyIZPzBLNMozVFEr9opQdYbGKRBbEfXEU
Og==
-----END CERTIFICATE-----
