Certificate:
    Data:
        Version: 3 (0x2)
        Serial Number: 387 (0x183)
        Signature Algorithm: sha1WithRSAEncryption
        Issuer: C=UG, L=Tropic, O=Utopia, OU=Relaxation, CN=the trusted CA
        Validity
            Not Before: Feb  9 18:47:34 2012 GMT
            Not After : Oct 18 18:47:34 2025 GMT
        Subject: C=UG, L=Tropic, O=Utopia, OU=Relaxation, CN=trusted client UID/UID=haahaa
        Subject Public Key Info:
            Public Key Algorithm: rsaEncryption
                Public-Key: (1024 bit)
                Modulus:
                    00:c3:9f:4b:73:8f:f9:70:d5:3c:80:90:dd:39:e6:
                    0e:b9:0a:ac:b1:9a:0e:65:c2:b3:8c:cf:f6:7f:78:
                    7e:9e:48:91:49:5d:62:d2:79:51:85:cf:1e:88:2c:
                    51:5d:2e:2f:34:bd:84:38:82:33:08:5d:f8:29:b2:
                    49:15:9c:5a:c6:a3:ac:2f:67:f7:a0:9b:b2:55:48:
                    2c:8a:a7:b9:de:03:b3:08:70:88:ba:93:f0:8a:3f:
                    a4:ca:10:74:65:7e:91:9e:db:92:f9:44:2c:68:72:
                    dd:dd:f2:f0:d0:35:ed:47:47:f9:76:29:48:52:66:
                    69:cf:f6:85:02:2c:97:b3:03
                Exponent: 65537 (0x10001)
        X509v3 extensions:
            X509v3 Basic Constraints: 
                CA:FALSE
            X509v3 Key Usage: critical
                Digital Signature, Non Repudiation, Key Encipherment
            Netscape Cert Type: 
                SSL Client, S/MIME
            Netscape Comment: 
                OpenSSL Generated Client Certificate
    Signature Algorithm: sha1WithRSAEncryption
        87:ab:06:22:e3:98:57:6c:0a:c0:ac:4c:56:bd:76:d8:9f:74:
        4d:49:a9:74:ef:d0:de:40:21:79:43:80:de:a1:76:df:6e:b1:
        e1:49:dd:dd:44:ac:11:fd:be:a4:66:38:19:82:40:3c:21:68:
        c0:49:69:ba:50:91:77:08:7b:50:51:be:7e:21:4b:dd:66:71:
        47:89:f1:84:6f:6b:f8:1f:46:df:18:5b:ef:7b:c7:2a:a3:15:
        4c:92:77:7b:57:5b:b4:22:f1:e4:cd:27:81:03:a2:c3:68:6a:
        e4:40:9e:27:0e:db:87:de:f6:8b:74:b5:79:1d:e3:0b:4a:7f:
        ff:43
-----BEGIN CERTIFICATE-----
MIICsjCCAhugAwIBAgICAYMwDQYJKoZIhvcNAQEFBQAwXTELMAkGA1UEBhMCVUcx
DzANBgNVBAcTBlRyb3BpYzEPMA0GA1UEChMGVXRvcGlhMRMwEQYDVQQLEwpSZWxh
eGF0aW9uMRcwFQYDVQQDEw50aGUgdHJ1c3RlZCBDQTAeFw0xMjAyMDkxODQ3MzRa
Fw0yNTEwMTgxODQ3MzRaMHkxCzAJBgNVBAYTAlVHMQ8wDQYDVQQHEwZUcm9waWMx
DzANBgNVBAoTBlV0b3BpYTETMBEGA1UECxMKUmVsYXhhdGlvbjEbMBkGA1UEAxMS
dHJ1c3RlZCBjbGllbnQgVUlEMRYwFAYKCZImiZPyLGQBARMGaGFhaGFhMIGfMA0G
CSqGSIb3DQEBAQUAA4GNADCBiQKBgQDDn0tzj/lw1TyAkN055g65Cqyxmg5lwrOM
z/Z/eH6eSJFJXWLSeVGFzx6ILFFdLi80vYQ4gjMIXfgpskkVnFrGo6wvZ/egm7JV
SCyKp7neA7MIcIi6k/CKP6TKEHRlfpGe25L5RCxoct3d8vDQNe1HR/l2KUhSZmnP
9oUCLJezAwIDAQABo2UwYzAJBgNVHRMEAjAAMA4GA1UdDwEB/wQEAwIF4DARBglg
hkgBhvhCAQEEBAMCBaAwMwYJYIZIAYb4QgENBCYWJE9wZW5TU0wgR2VuZXJhdGVk
IENsaWVudCBDZXJ0aWZpY2F0ZTANBgkqhkiG9w0BAQUFAAOBgQCHqwYi45hXbArA
rExWvXbYn3RNSal079DeQCF5Q4DeoXbfbrHhSd3dRKwR/b6kZjgZgkA8IWjASWm6
UJF3CHtQUb5+IUvdZnFHifGEb2v4H0bfGFvve8cqoxVMknd7V1u0IvHkzSeBA6LD
aGrkQJ4nDtuH3vaLdLV5HeMLSn//Qw==
-----END CERTIFICATE-----
