Certificate:
    Data:
        Version: 3 (0x2)
        Serial Number: 375 (0x177)
        Signature Algorithm: md5WithRSAEncryption
        Issuer: C=UG, L=Tropic, O=Utopia, OU=Relaxation, CN=the trusted CA
        Validity
            Not Before: Feb  9 18:47:30 2012 GMT
            Not After : Oct 18 18:47:30 2025 GMT
        Subject: C=UG, L=Tropic, O=Utopia, OU=Relaxation, CN=trusted client with md5 hash
        Subject Public Key Info:
            Public Key Algorithm: rsaEncryption
                Public-Key: (1024 bit)
                Modulus:
                    00:ab:e2:29:4d:29:02:ff:bb:08:18:b8:50:f3:6d:
                    d6:a5:df:9c:6c:3b:27:cd:7d:9f:c7:f3:6a:78:24:
                    b5:9b:da:86:5d:5d:19:51:74:41:1f:d9:4c:b1:ac:
                    bb:b5:c6:9b:8d:7d:42:35:d7:77:02:47:60:b0:16:
                    03:d6:10:e0:32:fb:53:d2:d6:aa:ec:b5:ba:24:7c:
                    44:ee:4c:3d:09:f5:6d:d2:cf:37:dc:bb:ff:0c:da:
                    3d:4a:81:3b:a9:ac:98:ee:7d:33:91:e3:53:4a:90:
                    8e:11:2a:42:59:f9:fe:73:8d:03:cf:4a:68:dd:4e:
                    bc:a7:84:d0:98:6a:9c:2d:5f
                Exponent: 65537 (0x10001)
        X509v3 extensions:
            X509v3 Basic Constraints: 
                CA:FALSE
            X509v3 Key Usage: critical
                Digital Signature, Non Repudiation, Key Encipherment
            Netscape Cert Type: 
                SSL Client, S/MIME
            Netscape Comment: 
                OpenSSL Generated Client Certificate
    Signature Algorithm: md5WithRSAEncryption
        ac:b1:f6:09:12:d5:a5:b2:80:85:dc:10:11:80:f9:91:d3:27:
        00:bb:d4:4d:85:58:89:b9:00:63:38:d1:62:01:3e:de:03:e9:
        bd:c2:b2:c1:e3:2f:8e:73:48:8e:89:35:54:3d:08:d2:b3:bf:
        b8:fd:0f:0d:2b:94:54:f7:89:1c:e9:b4:67:50:5b:82:3d:a9:
        54:ac:44:7e:21:6d:a3:e9:4a:2d:6c:d3:a7:2c:e9:20:b3:4f:
        2d:0c:51:2c:31:43:fc:67:f4:1c:4e:e4:83:76:af:a5:7f:ad:
        21:57:77:50:f0:25:f8:b2:f3:fd:34:95:2c:4a:80:9f:ad:24:
        06:96
-----BEGIN CERTIFICATE-----
MIICpDCCAg2gAwIBAgICAXcwDQYJKoZIhvcNAQEEBQAwXTELMAkGA1UEBhMCVUcx
DzANBgNVBAcTBlRyb3BpYzEPMA0GA1UEChMGVXRvcGlhMRMwEQYDVQQLEwpSZWxh
eGF0aW9uMRcwFQYDVQQDEw50aGUgdHJ1c3RlZCBDQTAeFw0xMjAyMDkxODQ3MzBa
Fw0yNTEwMTgxODQ3MzBaMGsxCzAJBgNVBAYTAlVHMQ8wDQYDVQQHEwZUcm9waWMx
DzANBgNVBAoTBlV0b3BpYTETMBEGA1UECxMKUmVsYXhhdGlvbjElMCMGA1UEAxMc
dHJ1c3RlZCBjbGllbnQgd2l0aCBtZDUgaGFzaDCBnzANBgkqhkiG9w0BAQEFAAOB
jQAwgYkCgYEAq+IpTSkC/7sIGLhQ823Wpd+cbDsnzX2fx/NqeCS1m9qGXV0ZUXRB
H9lMsay7tcabjX1CNdd3AkdgsBYD1hDgMvtT0taq7LW6JHxE7kw9CfVt0s833Lv/
DNo9SoE7qayY7n0zkeNTSpCOESpCWfn+c40Dz0po3U68p4TQmGqcLV8CAwEAAaNl
MGMwCQYDVR0TBAIwADAOBgNVHQ8BAf8EBAMCBeAwEQYJYIZIAYb4QgEBBAQDAgWg
MDMGCWCGSAGG+EIBDQQmFiRPcGVuU1NMIEdlbmVyYXRlZCBDbGllbnQgQ2VydGlm
aWNhdGUwDQYJKoZIhvcNAQEEBQADgYEArLH2CRLVpbKAhdwQEYD5kdMnALvUTYVY
ibkAYzjRYgE+3gPpvcKyweMvjnNIjok1VD0I0rO/uP0PDSuUVPeJHOm0Z1Bbgj2p
VKxEfiFto+lKLWzTpyzpILNPLQxRLDFD/Gf0HE7kg3avpX+tIVd3UPAl+LLz/TSV
LEqAn60kBpY=
-----END CERTIFICATE-----
