Certificate:
    Data:
        Version: 3 (0x2)
        Serial Number: 390 (0x186)
        Signature Algorithm: sha1WithRSAEncryption
        Issuer: C=UG, L=Tropic, O=Utopia, OU=Relaxation, CN=the trusted CA
        Validity
            Not Before: Feb  9 18:47:44 2012 GMT
            Not After : Oct 18 18:47:44 2025 GMT
        Subject: C=UG, L=Tropic, O=Utopia, OU=Relaxation, CN=trusted very big client
        Subject Public Key Info:
            Public Key Algorithm: rsaEncryption
                Public-Key: (8192 bit)
                Modulus:
                    00:cb:51:10:f8:86:87:14:e7:2d:97:bd:ac:77:fc:
                    cc:0d:c0:00:0d:07:95:5d:c5:43:a0:04:73:75:7d:
                    9e:40:53:cc:5e:c8:3a:c8:23:83:ca:79:05:a5:eb:
                    7a:25:08:02:88:f8:38:73:59:a2:ba:8c:88:ae:92:
                    04:de:57:dc:b0:e1:77:cb:18:05:51:e2:24:65:83:
                    b0:9e:a0:f7:de:80:75:16:20:50:f3:99:a2:14:2a:
                    46:4f:c0:97:06:b0:68:50:f6:d6:d9:5e:e8:71:b6:
                    8b:d3:e1:3e:3c:8d:11:e8:e0:3d:1e:6c:a4:a4:67:
                    56:c9:01:aa:22:e0:15:99:ba:e9:02:98:6e:46:12:
                    21:64:2f:e8:c7:2c:be:14:f9:c0:88:67:df:10:74:
                    53:4a:42:60:0c:fb:44:66:78:72:19:f2:dc:cd:b3:
                    9e:0b:e1:d8:c4:3b:08:da:56:fc:99:3d:32:1b:9a:
                    a7:57:64:47:2e:14:ef:41:4b:4e:a0:c3:ff:45:8e:
                    59:62:e6:f2:a1:7b:50:94:ab:de:7e:53:b3:9a:dc:
                    3e:86:47:8f:4e:01:b6:16:c2:e2:3e:35:f8:dd:d2:
                    f7:23:b3:bd:78:b5:b6:1f:88:d7:9d:c0:b9:fc:01:
                    d6:32:da:e4:b3:4e:07:0c:ac:e6:cd:96:a2:ff:23:
                    3d:00:a4:b3:48:20:cd:7b:7c:b1:2b:92:d5:b3:f0:
                    7b:ec:53:cf:80:90:92:ab:ca:b9:a3:1b:04:b9:2b:
                    6e:5b:46:fc:c5:7b:fe:f3:5c:0f:82:14:27:3b:a2:
                    bd:dd:b5:02:ff:69:09:73:70:1b:70:e0:a1:e3:9d:
                    3c:69:7b:81:29:19:04:a4:16:19:16:e4:d1:38:ab:
                    1b:1a:d3:4a:41:be:34:b2:e0:56:4b:a1:e1:9d:78:
                    57:1a:f3:f2:8d:d8:85:4a:0c:7b:e2:ef:ec:5a:81:
                    60:de:9e:82:eb:1b:95:00:0b:ae:3b:46:5c:6d:8f:
                    1b:ad:65:37:ac:32:7c:df:83:76:ce:cc:c7:79:aa:
                    8a:0b:de:05:0a:00:82:2b:53:f7:4b:66:92:13:c5:
                    69:f6:65:42:fc:b4:a3:4d:2c:a7:24:9c:98:0a:8f:
                    f5:ba:09:84:2a:02:89:b3:27:9d:d2:0a:d8:1f:01:
                    0a:69:10:40:bc:a1:bf:06:5a:5a:c3:44:42:a7:87:
                    9c:69:a9:46:98:a8:dd:d7:a7:bb:f2:3e:e0:ba:4b:
                    f5:67:19:4f:fd:77:f5:f0:8c:a6:ac:64:58:b4:3b:
                    dd:4b:62:05:f9:f4:55:15:d9:2c:d5:6d:19:7f:b4:
                    73:73:5e:85:5f:4f:f4:c2:0b:6a:4a:5c:9b:06:07:
                    75:8f:f7:b6:ae:a5:63:08:ad:5b:d7:1b:bb:b8:af:
                    f7:b0:5b:c6:00:dd:26:5f:5f:a8:1b:b8:e2:70:04:
                    97:13:74:dd:f2:43:c5:df:81:57:52:b6:66:97:a7:
                    86:87:7a:c1:da:f3:95:90:2f:e6:7b:8b:d0:ac:da:
                    45:4c:9c:1b:78:34:4d:48:3c:fa:2d:0f:ef:88:93:
                    af:8d:39:5c:7e:d9:9a:8e:67:91:cf:18:cf:db:c5:
                    a6:eb:ea:f0:9d:66:d5:ef:33:a9:49:cb:1a:5f:f8:
                    29:84:d3:f3:b0:92:06:72:2f:b2:61:d0:1d:2d:52:
                    af:d5:f0:12:24:1f:7a:84:87:3b:d6:1b:d4:8f:dd:
                    cd:15:8b:af:07:c8:31:11:3b:90:37:be:f1:d5:55:
                    b5:e4:93:0c:52:54:a0:4c:d9:91:bd:30:11:5b:97:
                    9d:82:9e:f1:1d:d5:51:ff:54:f4:37:33:59:c7:ff:
                    68:d0:e1:d6:76:8d:07:f3:b4:3d:0d:17:8e:10:90:
                    89:14:27:4e:ac:bc:eb:2d:0a:d2:5c:e6:ef:fa:87:
                    db:0f:19:77:64:cd:ff:26:b7:75:c9:89:2e:e1:23:
                    0f:93:be:46:13:12:cc:53:01:a3:8e:94:38:dc:91:
                    bf:fe:2b:2b:1d:f6:1f:3a:4c:99:21:58:10:21:23:
                    28:f7:d7:38:56:c7:70:2a:26:d3:49:40:c9:12:82:
                    78:81:ff:17:7b:b0:cd:46:ac:33:10:16:6e:7c:d0:
                    8d:a2:fc:ce:6f:dd:d2:7d:6b:f0:7d:da:bf:42:fb:
                    41:3c:8e:3e:8a:2f:ff:79:1b:46:e4:c2:b8:11:16:
                    e4:49:52:dc:32:f9:54:7c:fe:75:9e:a6:d8:bb:e5:
                    72:68:78:d0:24:54:c8:ab:a2:0f:1f:3b:0c:19:ed:
                    e3:8f:da:bf:c3:e5:a5:05:de:dd:56:13:ab:3c:8d:
                    3c:2e:61:fb:09:85:0c:38:4b:fa:87:af:a4:83:5b:
                    a8:76:5c:9a:8f:2c:33:3a:ea:ac:7b:8e:01:6f:b8:
                    b5:76:e8:a5:49:42:72:80:aa:e7:b0:2c:14:f8:3c:
                    8f:13:bd:8b:6d:e4:cf:c4:91:6a:0e:36:85:a3:4b:
                    ba:c2:94:4f:5c:66:1f:fb:ba:2b:bb:6b:88:3d:f0:
                    2c:6a:98:ea:bb:23:4b:42:d6:81:cd:ce:78:0a:f4:
                    07:f7:dd:ee:f9:5c:1a:ab:d2:24:8b:b8:ab:9e:7d:
                    fb:4b:c5:92:e6:8f:b9:01:bf:ef:0c:aa:b8:84:f6:
                    fc:20:a0:e9:9c:1c:d5:b2:c2:dd:f8:99:c8:48:ff:
                    7f:28:68:14:2c:6f:f5:8f:d2:cc:2b:91:6a:89:86:
                    11:5c:e4:b5:f5
                Exponent: 65537 (0x10001)
        X509v3 extensions:
            X509v3 Basic Constraints: 
                CA:FALSE
            X509v3 Key Usage: critical
                Digital Signature, Non Repudiation, Key Encipherment
            Netscape Cert Type: 
                SSL Client, S/MIME
            Netscape Comment: 
                OpenSSL Generated Client Certificate
    Signature Algorithm: sha1WithRSAEncryption
        88:5c:4e:0e:6c:e1:2e:95:8d:e5:54:ce:9b:cd:09:bf:92:64:
        0b:5a:f3:62:76:7b:20:5f:3f:9b:62:35:cd:d2:1d:0d:cd:bc:
        67:6c:a8:62:ac:f1:8b:9e:a7:86:ba:9f:bc:3f:61:a7:93:73:
        28:ae:46:d5:ba:1d:ae:0f:80:29:de:ed:d9:12:2b:5b:14:8f:
        50:de:74:08:c3:f2:d3:69:9c:ae:b1:55:15:76:0f:d3:69:ba:
        0d:da:aa:5f:e0:a1:34:8c:4b:91:92:79:f3:54:8a:29:1c:31:
        10:dc:7d:13:86:3c:ad:da:71:4e:84:93:0d:0d:f6:e0:9a:df:
        e2:a1
-----BEGIN CERTIFICATE-----
MIIGIzCCBYygAwIBAgICAYYwDQYJKoZIhvcNAQEFBQAwXTELMAkGA1UEBhMCVUcx
DzANBgNVBAcTBlRyb3BpYzEPMA0GA1UEChMGVXRvcGlhMRMwEQYDVQQLEwpSZWxh
eGF0aW9uMRcwFQYDVQQDEw50aGUgdHJ1c3RlZCBDQTAeFw0xMjAyMDkxODQ3NDRa
Fw0yNTEwMTgxODQ3NDRaMGYxCzAJBgNVBAYTAlVHMQ8wDQYDVQQHEwZUcm9waWMx
DzANBgNVBAoTBlV0b3BpYTETMBEGA1UECxMKUmVsYXhhdGlvbjEgMB4GA1UEAxMX
dHJ1c3RlZCB2ZXJ5IGJpZyBjbGllbnQwggQiMA0GCSqGSIb3DQEBAQUAA4IEDwAw
ggQKAoIEAQDLURD4hocU5y2Xvax3/MwNwAANB5VdxUOgBHN1fZ5AU8xeyDrII4PK
eQWl63olCAKI+DhzWaK6jIiukgTeV9yw4XfLGAVR4iRlg7CeoPfegHUWIFDzmaIU
KkZPwJcGsGhQ9tbZXuhxtovT4T48jRHo4D0ebKSkZ1bJAaoi4BWZuukCmG5GEiFk
L+jHLL4U+cCIZ98QdFNKQmAM+0RmeHIZ8tzNs54L4djEOwjaVvyZPTIbmqdXZEcu
FO9BS06gw/9Fjlli5vKhe1CUq95+U7Oa3D6GR49OAbYWwuI+Nfjd0vcjs714tbYf
iNedwLn8AdYy2uSzTgcMrObNlqL/Iz0ApLNIIM17fLErktWz8HvsU8+AkJKryrmj
GwS5K25bRvzFe/7zXA+CFCc7or3dtQL/aQlzcBtw4KHjnTxpe4EpGQSkFhkW5NE4
qxsa00pBvjSy4FZLoeGdeFca8/KN2IVKDHvi7+xagWDenoLrG5UAC647Rlxtjxut
ZTesMnzfg3bOzMd5qooL3gUKAIIrU/dLZpITxWn2ZUL8tKNNLKcknJgKj/W6CYQq
AomzJ53SCtgfAQppEEC8ob8GWlrDREKnh5xpqUaYqN3Xp7vyPuC6S/VnGU/9d/Xw
jKasZFi0O91LYgX59FUV2SzVbRl/tHNzXoVfT/TCC2pKXJsGB3WP97aupWMIrVvX
G7u4r/ewW8YA3SZfX6gbuOJwBJcTdN3yQ8XfgVdStmaXp4aHesHa85WQL+Z7i9Cs
2kVMnBt4NE1IPPotD++Ik6+NOVx+2ZqOZ5HPGM/bxabr6vCdZtXvM6lJyxpf+CmE
0/OwkgZyL7Jh0B0tUq/V8BIkH3qEhzvWG9SP3c0Vi68HyDERO5A3vvHVVbXkkwxS
VKBM2ZG9MBFbl52CnvEd1VH/VPQ3M1nH/2jQ4dZ2jQfztD0NF44QkIkUJ06svOst
CtJc5u/6h9sPGXdkzf8mt3XJiS7hIw+TvkYTEsxTAaOOlDjckb/+Kysd9h86TJkh
WBAhIyj31zhWx3AqJtNJQMkSgniB/xd7sM1GrDMQFm580I2i/M5v3dJ9a/B92r9C
+0E8jj6KL/95G0bkwrgRFuRJUtwy+VR8/nWepti75XJoeNAkVMirog8fOwwZ7eOP
2r/D5aUF3t1WE6s8jTwuYfsJhQw4S/qHr6SDW6h2XJqPLDM66qx7jgFvuLV26KVJ
QnKAquewLBT4PI8TvYtt5M/EkWoONoWjS7rClE9cZh/7uiu7a4g98CxqmOq7I0tC
1oHNzngK9Af33e75XBqr0iSLuKuefftLxZLmj7kBv+8MqriE9vwgoOmcHNWywt34
mchI/38oaBQsb/WP0swrkWqJhhFc5LX1AgMBAAGjZTBjMAkGA1UdEwQCMAAwDgYD
VR0PAQH/BAQDAgXgMBEGCWCGSAGG+EIBAQQEAwIFoDAzBglghkgBhvhCAQ0EJhYk
T3BlblNTTCBHZW5lcmF0ZWQgQ2xpZW50IENlcnRpZmljYXRlMA0GCSqGSIb3DQEB
BQUAA4GBAIhcTg5s4S6VjeVUzpvNCb+SZAta82J2eyBfP5tiNc3SHQ3NvGdsqGKs
8Yuep4a6n7w/YaeTcyiuRtW6Ha4PgCne7dkSK1sUj1DedAjD8tNpnK6xVRV2D9Np
ug3aql/goTSMS5GSefNUiikcMRDcfROGPK3acU6Ekw0N9uCa3+Kh
-----END CERTIFICATE-----
