Certificate:
    Data:
        Version: 3 (0x2)
        Serial Number: 377 (0x179)
        Signature Algorithm: sha256WithRSAEncryption
        Issuer: C=UG, L=Tropic, O=Utopia, OU=Relaxation, CN=the trusted CA
        Validity
            Not Before: Feb  9 18:47:31 2012 GMT
            Not After : Oct 18 18:47:31 2025 GMT
        Subject: C=UG, L=Tropic, O=Utopia, OU=Relaxation, CN=trusted client with sha256 hash
        Subject Public Key Info:
            Public Key Algorithm: rsaEncryption
                Public-Key: (1024 bit)
                Modulus:
                    00:a2:9c:a5:ae:ea:94:51:d9:58:03:83:d1:a8:60:
                    b4:7a:66:7c:80:8e:33:cd:e1:85:35:a2:72:aa:36:
                    2a:24:6b:40:5e:9a:dc:d2:e4:ee:45:4b:96:95:bd:
                    5e:9d:a4:e5:fe:07:d9:b3:62:fd:43:c9:28:bd:e1:
                    71:3c:81:cb:4e:53:94:ce:8a:f8:df:18:91:e0:47:
                    be:17:30:09:fb:ac:06:7e:f6:f3:b7:5b:5f:ed:53:
                    f8:fb:75:be:f5:dd:97:57:57:53:22:3a:b9:ea:96:
                    47:d7:2d:78:b3:c7:0e:90:a5:f1:3e:e1:39:24:c7:
                    24:88:3b:1f:68:b0:ac:2e:d3
                Exponent: 65537 (0x10001)
        X509v3 extensions:
            X509v3 Basic Constraints: 
                CA:FALSE
            X509v3 Key Usage: critical
                Digital Signature, Non Repudiation, Key Encipherment
            Netscape Cert Type: 
                SSL Client, S/MIME
            Netscape Comment: 
                OpenSSL Generated Client Certificate
    Signature Algorithm: sha256WithRSAEncryption
        8e:f0:62:1e:3a:f7:dc:11:1d:e3:9a:98:6a:49:e9:37:04:57:
        10:fe:67:80:00:81:10:97:18:22:17:14:ac:06:53:4b:b3:26:
        e2:0b:47:17:78:8d:e8:be:c0:73:ad:6a:02:d2:74:ff:c0:e8:
        59:0a:f2:2c:a5:95:d2:a6:4d:79:9e:f9:38:70:37:be:6d:a8:
        4c:2d:63:8d:b4:62:4b:42:53:bd:1b:1e:27:e4:dc:64:29:3b:
        d0:6b:58:64:8d:cd:71:3c:9d:b7:f2:22:a5:79:a8:81:79:ab:
        88:83:fb:46:4c:33:fc:ec:9b:2e:41:89:ab:ab:bc:ca:15:6f:
        b6:5d
-----BEGIN CERTIFICATE-----
MIICpzCCAhCgAwIBAgICAXkwDQYJKoZIhvcNAQELBQAwXTELMAkGA1UEBhMCVUcx
DzANBgNVBAcTBlRyb3BpYzEPMA0GA1UEChMGVXRvcGlhMRMwEQYDVQQLEwpSZWxh
eGF0aW9uMRcwFQYDVQQDEw50aGUgdHJ1c3RlZCBDQTAeFw0xMjAyMDkxODQ3MzFa
Fw0yNTEwMTgxODQ3MzFaMG4xCzAJBgNVBAYTAlVHMQ8wDQYDVQQHEwZUcm9waWMx
DzANBgNVBAoTBlV0b3BpYTETMBEGA1UECxMKUmVsYXhhdGlvbjEoMCYGA1UEAxMf
dHJ1c3RlZCBjbGllbnQgd2l0aCBzaGEyNTYgaGFzaDCBnzANBgkqhkiG9w0BAQEF
AAOBjQAwgYkCgYEAopylruqUUdlYA4PRqGC0emZ8gI4zzeGFNaJyqjYqJGtAXprc
0uTuRUuWlb1enaTl/gfZs2L9Q8koveFxPIHLTlOUzor43xiR4Ee+FzAJ+6wGfvbz
t1tf7VP4+3W+9d2XV1dTIjq56pZH1y14s8cOkKXxPuE5JMckiDsfaLCsLtMCAwEA
AaNlMGMwCQYDVR0TBAIwADAOBgNVHQ8BAf8EBAMCBeAwEQYJYIZIAYb4QgEBBAQD
AgWgMDMGCWCGSAGG+EIBDQQmFiRPcGVuU1NMIEdlbmVyYXRlZCBDbGllbnQgQ2Vy
dGlmaWNhdGUwDQYJKoZIhvcNAQELBQADgYEAjvBiHjr33BEd45qYaknpNwRXEP5n
gACBEJcYIhcUrAZTS7Mm4gtHF3iN6L7Ac61qAtJ0/8DoWQryLKWV0qZNeZ75OHA3
vm2oTC1jjbRiS0JTvRseJ+TcZCk70GtYZI3NcTydt/IipXmogXmriIP7Rkwz/Oyb
LkGJq6u8yhVvtl0=
-----END CERTIFICATE-----
