Certificate:
    Data:
        Version: 3 (0x2)
        Serial Number: 392 (0x188)
        Signature Algorithm: sha1WithRSAEncryption
        Issuer: C=UG, L=Tropic, O=Utopia, OU=Relaxation, CN=the trusted CA
        Validity
            Not Before: Feb  9 18:47:45 2012 GMT
            Not After : Oct 18 18:47:45 2025 GMT
        Subject: C=UG, L=Tropic, O=Utopia, OU=Relaxation, CN=pchip10.cern.ch
        Subject Public Key Info:
            Public Key Algorithm: rsaEncryption
                Public-Key: (1024 bit)
                Modulus:
                    00:a7:9d:83:72:13:72:a0:43:ab:af:08:91:c3:56:
                    c7:f8:2c:cf:e8:1c:be:b6:b4:8e:c6:ec:8e:89:c6:
                    44:c4:a2:0d:18:58:60:e3:bb:fe:52:f4:6c:df:f6:
                    ea:07:dc:e3:09:04:28:a3:21:d0:f3:3d:b9:2a:24:
                    21:e7:72:ff:e2:51:fc:9a:41:ac:0e:93:ae:03:b5:
                    0f:34:54:19:50:c4:8d:97:4d:82:81:7e:15:a3:0b:
                    32:d9:b4:c3:41:97:df:03:35:a1:cd:59:45:c6:53:
                    56:c3:e2:6d:8a:5d:20:bf:9d:df:bb:97:12:9a:3c:
                    61:cf:de:2c:79:60:5a:b6:ed
                Exponent: 65537 (0x10001)
        X509v3 extensions:
            X509v3 Basic Constraints: 
                CA:FALSE
            X509v3 Key Usage: critical
                Digital Signature, Non Repudiation, Key Encipherment
            Netscape Cert Type: 
                SSL Server
            Netscape Comment: 
                OpenSSL Generated Server Certificate
    Signature Algorithm: sha1WithRSAEncryption
        98:da:df:c6:46:f4:51:3c:7a:31:24:59:91:12:e3:68:1d:d4:
        9b:a5:30:10:4a:50:b7:53:80:c9:d6:3c:ef:fc:cc:ad:76:79:
        97:41:d0:ac:e2:e1:7b:a1:fe:e6:81:6c:16:4f:25:db:62:86:
        1a:91:58:19:c0:e3:2e:8f:66:fe:fd:8c:a0:92:cc:94:77:2d:
        a5:2d:7a:c2:a3:96:2f:2f:36:47:34:40:41:c3:b8:0e:c1:5a:
        d2:56:dc:b9:07:2d:9a:31:d2:89:9c:db:31:8c:ce:7f:d7:88:
        23:91:3c:e1:c9:f8:de:26:7b:6e:f0:ca:b0:a9:fe:76:80:8f:
        b3:cf
-----BEGIN CERTIFICATE-----
MIIClzCCAgCgAwIBAgICAYgwDQYJKoZIhvcNAQEFBQAwXTELMAkGA1UEBhMCVUcx
DzANBgNVBAcTBlRyb3BpYzEPMA0GA1UEChMGVXRvcGlhMRMwEQYDVQQLEwpSZWxh
eGF0aW9uMRcwFQYDVQQDEw50aGUgdHJ1c3RlZCBDQTAeFw0xMjAyMDkxODQ3NDVa
Fw0yNTEwMTgxODQ3NDVaMF4xCzAJBgNVBAYTAlVHMQ8wDQYDVQQHEwZUcm9waWMx
DzANBgNVBAoTBlV0b3BpYTETMBEGA1UECxMKUmVsYXhhdGlvbjEYMBYGA1UEAxMP
cGNoaXAxMC5jZXJuLmNoMIGfMA0GCSqGSIb3DQEBAQUAA4GNADCBiQKBgQCnnYNy
E3KgQ6uvCJHDVsf4LM/oHL62tI7G7I6JxkTEog0YWGDju/5S9Gzf9uoH3OMJBCij
IdDzPbkqJCHncv/iUfyaQawOk64DtQ80VBlQxI2XTYKBfhWjCzLZtMNBl98DNaHN
WUXGU1bD4m2KXSC/nd+7lxKaPGHP3ix5YFq27QIDAQABo2UwYzAJBgNVHRMEAjAA
MA4GA1UdDwEB/wQEAwIF4DARBglghkgBhvhCAQEEBAMCBkAwMwYJYIZIAYb4QgEN
BCYWJE9wZW5TU0wgR2VuZXJhdGVkIFNlcnZlciBDZXJ0aWZpY2F0ZTANBgkqhkiG
9w0BAQUFAAOBgQCY2t/GRvRRPHoxJFmREuNoHdSbpTAQSlC3U4DJ1jzv/MytdnmX
QdCs4uF7of7mgWwWTyXbYoYakVgZwOMuj2b+/YygksyUdy2lLXrCo5YvLzZHNEBB
w7gOwVrSVty5By2aMdKJnNsxjM5/14gjkTzhyfjeJntu8Mqwqf52gI+zzw==
-----END CERTIFICATE-----
