Certificate:
    Data:
        Version: 3 (0x2)
        Serial Number: 376 (0x178)
        Signature Algorithm: sha224WithRSAEncryption
        Issuer: C=UG, L=Tropic, O=Utopia, OU=Relaxation, CN=the trusted CA
        Validity
            Not Before: Feb  9 18:47:30 2012 GMT
            Not After : Oct 18 18:47:30 2025 GMT
        Subject: C=UG, L=Tropic, O=Utopia, OU=Relaxation, CN=trusted client with sha224 hash
        Subject Public Key Info:
            Public Key Algorithm: rsaEncryption
                Public-Key: (1024 bit)
                Modulus:
                    00:f0:b2:0d:73:1a:a0:77:fd:66:73:5a:12:3b:33:
                    d3:00:5a:c8:3f:40:25:92:05:d9:d2:e8:8b:52:95:
                    d5:df:80:80:9a:1e:99:b5:2e:25:a3:4b:8c:7c:4d:
                    b6:e7:6f:ec:10:f5:0c:7f:4f:70:f2:ed:c7:09:78:
                    bd:27:38:ad:73:97:85:e0:8a:b0:09:51:bd:2e:8f:
                    bd:08:4d:2d:e9:db:2e:54:f3:53:fb:a3:9f:3f:9a:
                    ab:c7:61:e6:cc:cb:50:d5:5f:11:c6:a8:27:37:00:
                    73:a4:16:34:26:55:51:19:22:50:a3:b1:29:af:3a:
                    81:26:06:d4:a7:39:c8:c1:ff
                Exponent: 65537 (0x10001)
        X509v3 extensions:
            X509v3 Basic Constraints: 
                CA:FALSE
            X509v3 Key Usage: critical
                Digital Signature, Non Repudiation, Key Encipherment
            Netscape Cert Type: 
                SSL Client, S/MIME
            Netscape Comment: 
                OpenSSL Generated Client Certificate
    Signature Algorithm: sha224WithRSAEncryption
        21:f6:a9:1a:01:cb:f1:b3:8d:96:d0:c4:de:e0:cc:f4:85:b3:
        42:07:95:18:72:b1:f5:e5:21:4c:39:6f:6e:99:ec:32:4c:c5:
        d4:05:f6:e4:23:49:a9:dc:4a:c1:42:c8:0b:b8:73:91:dd:54:
        30:e7:06:7a:4c:0b:6b:bb:b8:7b:ab:51:de:f5:e0:ec:ee:18:
        7c:77:07:b8:42:fe:73:57:34:18:ed:5f:0b:6e:87:2b:3a:90:
        4a:c9:e1:02:cf:d7:8e:4d:2c:ff:15:c4:a3:9a:97:aa:de:3c:
        a4:72:83:37:5a:d9:62:30:13:a5:cd:c1:67:be:3d:a4:4a:69:
        85:a4
-----BEGIN CERTIFICATE-----
MIICpzCCAhCgAwIBAgICAXgwDQYJKoZIhvcNAQEOBQAwXTELMAkGA1UEBhMCVUcx
DzANBgNVBAcTBlRyb3BpYzEPMA0GA1UEChMGVXRvcGlhMRMwEQYDVQQLEwpSZWxh
eGF0aW9uMRcwFQYDVQQDEw50aGUgdHJ1c3RlZCBDQTAeFw0xMjAyMDkxODQ3MzBa
Fw0yNTEwMTgxODQ3MzBaMG4xCzAJBgNVBAYTAlVHMQ8wDQYDVQQHEwZUcm9waWMx
DzANBgNVBAoTBlV0b3BpYTETMBEGA1UECxMKUmVsYXhhdGlvbjEoMCYGA1UEAxMf
dHJ1c3RlZCBjbGllbnQgd2l0aCBzaGEyMjQgaGFzaDCBnzANBgkqhkiG9w0BAQEF
AAOBjQAwgYkCgYEA8LINcxqgd/1mc1oSOzPTAFrIP0AlkgXZ0uiLUpXV34CAmh6Z
tS4lo0uMfE2252/sEPUMf09w8u3HCXi9Jzitc5eF4IqwCVG9Lo+9CE0t6dsuVPNT
+6OfP5qrx2HmzMtQ1V8RxqgnNwBzpBY0JlVRGSJQo7EprzqBJgbUpznIwf8CAwEA
AaNlMGMwCQYDVR0TBAIwADAOBgNVHQ8BAf8EBAMCBeAwEQYJYIZIAYb4QgEBBAQD
AgWgMDMGCWCGSAGG+EIBDQQmFiRPcGVuU1NMIEdlbmVyYXRlZCBDbGllbnQgQ2Vy
dGlmaWNhdGUwDQYJKoZIhvcNAQEOBQADgYEAIfapGgHL8bONltDE3uDM9IWzQgeV
GHKx9eUhTDlvbpnsMkzF1AX25CNJqdxKwULIC7hzkd1UMOcGekwLa7u4e6tR3vXg
7O4YfHcHuEL+c1c0GO1fC26HKzqQSsnhAs/Xjk0s/xXEo5qXqt48pHKDN1rZYjAT
pc3BZ749pEpphaQ=
-----END CERTIFICATE-----
