Certificate:
    Data:
        Version: 3 (0x2)
        Serial Number: 381 (0x17d)
        Signature Algorithm: sha1WithRSAEncryption
        Issuer: C=UG, L=Tropic, O=Utopia, OU=Relaxation, CN=the big CA
        Validity
            Not Before: Jan  1 00:00:00 2035 GMT
            Not After : Oct 18 18:48:06 2025 GMT
        Subject: C=UG, L=Tropic, O=Utopia, OU=Relaxation, CN=big client future
        Subject Public Key Info:
            Public Key Algorithm: rsaEncryption
                Public-Key: (1024 bit)
                Modulus:
                    00:cc:8b:e8:ec:d4:ea:f7:19:6a:8d:0a:97:bd:f0:
                    0b:58:43:cd:51:be:39:6b:86:f5:92:4f:4a:30:00:
                    ba:d2:73:6a:a7:5b:2b:0e:93:db:f7:8f:f2:1b:84:
                    dd:a7:0c:5d:b0:59:f8:4d:43:d2:f8:91:ad:d7:7b:
                    7b:30:f0:f7:e2:aa:75:6d:ce:f3:2b:1c:61:2f:49:
                    5c:c8:12:11:eb:10:12:bf:06:9e:91:78:0b:6a:ee:
                    d1:81:bb:80:e4:50:68:cb:12:1a:a4:fd:68:ca:62:
                    9d:38:8b:5a:25:36:1f:58:cb:53:fd:67:c1:fb:dc:
                    f8:6c:30:d8:03:ab:68:80:55
                Exponent: 65537 (0x10001)
        X509v3 extensions:
            X509v3 Basic Constraints: 
                CA:FALSE
            X509v3 Key Usage: critical
                Digital Signature, Non Repudiation, Key Encipherment
            Netscape Cert Type: 
                SSL Client, S/MIME
            Netscape Comment: 
                OpenSSL Generated Client Certificate
    Signature Algorithm: sha1WithRSAEncryption
        28:7f:a2:50:f4:87:39:62:e6:ee:3f:79:40:0d:c7:fd:c2:1e:
        e8:63:2b:7a:02:35:5f:f2:c1:f9:63:4e:94:22:d0:a7:9d:a8:
        f0:2b:64:f6:4b:c8:50:7f:f5:0e:c4:11:74:45:89:92:ca:e5:
        89:36:5b:ff:e5:5c:59:c4:e6:e9:13:32:1e:40:5a:07:70:f7:
        66:64:6b:56:0f:48:46:56:38:05:27:22:21:70:e1:e6:fd:36:
        e9:76:e4:dc:29:9d:df:d7:87:bb:d7:d3:04:3f:00:1a:30:3b:
        05:74:72:42:cc:9b:82:a1:7d:e7:e8:87:07:01:69:c2:4e:d0:
        a4:90:87:5b:68:24:1a:46:2e:1b:3b:a2:c1:24:a4:eb:9f:86:
        78:47:44:c7:28:d2:0a:47:47:6f:dd:cd:3d:db:0a:83:2d:e3:
        3e:94:4f:f5:82:b1:1f:7f:8b:dc:95:66:86:38:84:26:06:79:
        59:59:78:04:fc:7e:21:c2:b2:7f:fd:9c:b4:77:f6:3e:a5:8f:
        56:4d:f2:8c:df:f0:94:0b:c0:ad:a1:e2:57:3d:f3:bb:e2:20:
        f1:cb:2c:d8:b7:47:0e:ee:f3:6d:e7:e6:5d:6d:3f:17:5a:d9:
        01:ca:aa:b7:c9:ae:da:75:8b:e3:93:ed:b1:55:99:0e:7b:bd:
        75:ad:85:cd:65:01:d9:b9:5e:b4:a6:1f:ef:b1:32:0c:1f:26:
        08:3a:fd:d5:74:b3:86:43:7b:45:eb:b4:6f:fd:16:2b:10:21:
        5d:ca:ca:75:72:de:6f:34:7d:39:50:c3:5f:6d:75:47:f4:d1:
        64:4d:ca:52:b2:dd:77:a6:d1:13:b7:bb:18:35:83:68:74:2e:
        3f:70:b1:75:51:2e:14:40:28:03:7d:b7:02:bd:b6:3d:53:a8:
        8f:08:21:38:ac:7b:ad:44:f6:64:e2:38:9a:e0:c0:2c:75:bf:
        aa:7f:e7:67:79:06:69:9a:eb:d3:65:c8:00:87:8d:b9:f0:14:
        b5:75:40:4d:54:22:d0:8a:21:5f:39:34:48:9b:e1:ea:6d:79:
        f9:1a:c1:06:e4:32:7a:b8:70:dd:f9:11:f8:86:6e:1d:d5:d4:
        8b:81:bc:d4:f5:85:9f:9d:08:5d:02:3f:5a:d0:d3:a9:67:f0:
        c4:42:78:4c:a7:45:8c:f3:02:21:4b:6b:59:4b:15:67:19:ae:
        7f:f2:4a:b3:04:f3:8f:71:85:ee:16:c9:85:3c:2b:f5:d6:c6:
        52:f8:33:df:9f:d7:9c:87:b7:81:d9:05:c2:00:5c:d8:52:b3:
        d2:27:9e:93:4e:aa:b6:f3:5e:9b:83:57:1e:c7:a1:5b:c2:4b:
        ab:11:7b:db:67:04:6c:cf:c5:e3:e8:0c:50:8f:34:66:b1:f8:
        46:33:cf:0f:04:43:d8:70:db:ba:25:b1:98:71:ea:4c:29:43:
        1c:7d:d0:23:d6:0b:a8:6a:73:d2:9b:4f:78:82:dd:49:2a:16:
        d5:1b:e4:82:bf:a1:34:42:c2:74:6e:2e:77:a8:1b:3a:a1:e5:
        8d:67:42:85:b0:08:e0:eb:33:23:0b:cf:3e:cc:28:72:62:7e:
        28:12:75:8b:5c:07:09:4e:71:08:a0:80:58:bd:07:4c:6c:b0:
        1b:d0:0e:61:ee:f6:6c:7a:87:37:b9:a3:4c:31:07:ba:0c:04:
        96:86:b0:db:7f:c0:9c:2e:b2:a9:01:fb:9b:40:ea:2a:b2:80:
        80:1b:82:ce:f5:8d:00:2f:81:13:eb:2e:45:95:28:4c:1a:52:
        4a:df:e5:3e:e7:19:6a:c9:a5:b2:2a:79:2d:93:26:55:36:f5:
        21:d0:2a:51:37:b7:25:12:1c:a4:71:da:c4:29:2c:85:b5:b4:
        ad:54:eb:1b:48:e7:ad:ce:ff:9f:1e:ba:c1:d4:3a:a0:66:9d:
        3b:62:8e:91:26:22:b3:dc:8c:86:21:fa:33:68:92:54:67:8b:
        d7:91:92:a3:96:98:86:ba:14:7e:0b:f4:41:53:d8:66:c6:f1:
        79:2d:b1:a8:28:be:0b:c7:54:ca:31:fd:7b:00:bd:9a:31:b0:
        43:76:84:a8:b6:77:46:a5:b6:b6:cc:cf:9f:b4:70:e4:7c:62:
        7f:10:28:72:69:53:19:2c:6a:e2:7b:50:f7:b7:45:27:ea:20:
        3b:b7:be:f5:f7:e6:00:3e:77:96:b3:f9:4c:b1:bf:5f:0a:3e:
        ac:f2:ba:ad:4e:e9:2e:62:d6:a0:9f:79:a6:53:2f:cb:d4:67:
        ea:02:4d:20:9a:03:8c:5e:ec:d7:c9:09:a6:cd:29:1f:b8:1f:
        7b:95:68:b2:69:59:9d:ab:27:1a:19:f7:86:a4:9d:38:4d:3a:
        c8:0a:c5:aa:19:60:2f:87:95:21:ee:da:bc:cb:51:bc:93:24:
        42:c4:1a:48:c2:c4:d9:06:c6:ea:da:4c:83:4f:72:68:dd:fa:
        9d:e3:25:24:0e:3f:1d:bd:85:49:ef:0c:2e:e8:28:a2:78:67:
        ca:d9:b8:fc:8b:2a:96:6a:64:ba:10:c5:05:ab:96:72:16:8d:
        c6:04:f7:ea:d6:09:2d:53:ac:6d:f4:7c:d5:f4:1e:da:eb:6e:
        e0:9f:a4:99:9c:be:71:3b:77:9b:fa:e0:0b:66:cc:fc:17:84:
        3c:39:c5:3d:64:3c:34:80:a5:84:a6:92:de:ac:22:76:bd:f6:
        d0:e2:42:91:94:8e:b4:ad:a5:10:37:54:f0:51:70:17
-----BEGIN CERTIFICATE-----
MIIGFjCCAf6gAwIBAgICAX0wDQYJKoZIhvcNAQEFBQAwWTELMAkGA1UEBhMCVUcx
DzANBgNVBAcTBlRyb3BpYzEPMA0GA1UEChMGVXRvcGlhMRMwEQYDVQQLEwpSZWxh
eGF0aW9uMRMwEQYDVQQDEwp0aGUgYmlnIENBMB4XDTM1MDEwMTAwMDAwMFoXDTI1
MTAxODE4NDgwNlowYDELMAkGA1UEBhMCVUcxDzANBgNVBAcTBlRyb3BpYzEPMA0G
A1UEChMGVXRvcGlhMRMwEQYDVQQLEwpSZWxheGF0aW9uMRowGAYDVQQDExFiaWcg
Y2xpZW50IGZ1dHVyZTCBnzANBgkqhkiG9w0BAQEFAAOBjQAwgYkCgYEAzIvo7NTq
9xlqjQqXvfALWEPNUb45a4b1kk9KMAC60nNqp1srDpPb94/yG4TdpwxdsFn4TUPS
+JGt13t7MPD34qp1bc7zKxxhL0lcyBIR6xASvwaekXgLau7RgbuA5FBoyxIapP1o
ymKdOItaJTYfWMtT/WfB+9z4bDDYA6togFUCAwEAAaNlMGMwCQYDVR0TBAIwADAO
BgNVHQ8BAf8EBAMCBeAwEQYJYIZIAYb4QgEBBAQDAgWgMDMGCWCGSAGG+EIBDQQm
FiRPcGVuU1NMIEdlbmVyYXRlZCBDbGllbnQgQ2VydGlmaWNhdGUwDQYJKoZIhvcN
AQEFBQADggQBACh/olD0hzli5u4/eUANx/3CHuhjK3oCNV/ywfljTpQi0KedqPAr
ZPZLyFB/9Q7EEXRFiZLK5Yk2W//lXFnE5ukTMh5AWgdw92Zka1YPSEZWOAUnIiFw
4eb9Nul25Nwpnd/Xh7vX0wQ/ABowOwV0ckLMm4KhfefohwcBacJO0KSQh1toJBpG
Lhs7osEkpOufhnhHRMco0gpHR2/dzT3bCoMt4z6UT/WCsR9/i9yVZoY4hCYGeVlZ
eAT8fiHCsn/9nLR39j6lj1ZN8ozf8JQLwK2h4lc987viIPHLLNi3Rw7u823n5l1t
Pxda2QHKqrfJrtp1i+OT7bFVmQ57vXWthc1lAdm5XrSmH++xMgwfJgg6/dV0s4ZD
e0XrtG/9FisQIV3KynVy3m80fTlQw19tdUf00WRNylKy3Xem0RO3uxg1g2h0Lj9w
sXVRLhRAKAN9twK9tj1TqI8IITise61E9mTiOJrgwCx1v6p/52d5Bmma69NlyACH
jbnwFLV1QE1UItCKIV85NEib4eptefkawQbkMnq4cN35EfiGbh3V1IuBvNT1hZ+d
CF0CP1rQ06ln8MRCeEynRYzzAiFLa1lLFWcZrn/ySrME849xhe4WyYU8K/XWxlL4
M9+f15yHt4HZBcIAXNhSs9InnpNOqrbzXpuDVx7HoVvCS6sRe9tnBGzPxePoDFCP
NGax+EYzzw8EQ9hw27olsZhx6kwpQxx90CPWC6hqc9KbT3iC3UkqFtUb5IK/oTRC
wnRuLneoGzqh5Y1nQoWwCODrMyMLzz7MKHJifigSdYtcBwlOcQiggFi9B0xssBvQ
DmHu9mx6hze5o0wxB7oMBJaGsNt/wJwusqkB+5tA6iqygIAbgs71jQAvgRPrLkWV
KEwaUkrf5T7nGWrJpbIqeS2TJlU29SHQKlE3tyUSHKRx2sQpLIW1tK1U6xtI563O
/58eusHUOqBmnTtijpEmIrPcjIYh+jNoklRni9eRkqOWmIa6FH4L9EFT2GbG8Xkt
sagovgvHVMox/XsAvZoxsEN2hKi2d0altrbMz5+0cOR8Yn8QKHJpUxksauJ7UPe3
RSfqIDu3vvX35gA+d5az+Uyxv18KPqzyuq1O6S5i1qCfeaZTL8vUZ+oCTSCaA4xe
7NfJCabNKR+4H3uVaLJpWZ2rJxoZ94aknThNOsgKxaoZYC+HlSHu2rzLUbyTJELE
GkjCxNkGxuraTINPcmjd+p3jJSQOPx29hUnvDC7oKKJ4Z8rZuPyLKpZqZLoQxQWr
lnIWjcYE9+rWCS1TrG30fNX0HtrrbuCfpJmcvnE7d5v64AtmzPwXhDw5xT1kPDSA
pYSmkt6sIna99tDiQpGUjrStpRA3VPBRcBc=
-----END CERTIFICATE-----
