Certificate:
    Data:
        Version: 3 (0x2)
        Serial Number: 378 (0x17a)
        Signature Algorithm: sha384WithRSAEncryption
        Issuer: C=UG, L=Tropic, O=Utopia, OU=Relaxation, CN=the big CA
        Validity
            Not Before: Feb  9 18:48:05 2012 GMT
            Not After : Oct 18 18:48:05 2025 GMT
        Subject: C=UG, L=Tropic, O=Utopia, OU=Relaxation, CN=big client with sha384 hash
        Subject Public Key Info:
            Public Key Algorithm: rsaEncryption
                Public-Key: (1024 bit)
                Modulus:
                    00:b2:2e:d5:9a:37:13:04:60:8e:f7:01:a5:76:e6:
                    10:7d:4d:92:45:c0:b8:2b:f9:eb:9d:08:e4:49:59:
                    77:77:41:85:48:ce:e2:5c:d4:c7:91:7e:e8:51:01:
                    fc:37:52:a1:58:c1:51:5a:e9:56:1f:b1:be:4a:86:
                    ad:51:0e:47:64:8f:52:70:73:ae:af:cd:bb:12:a4:
                    ee:61:38:ad:51:8c:a6:9b:07:89:5a:4d:8f:b3:2a:
                    22:0c:aa:f3:74:60:b1:2b:13:13:b6:5d:f1:fd:bc:
                    60:42:df:d5:15:68:17:dd:7c:6d:4d:c2:58:f9:9a:
                    24:ac:c5:1e:07:2e:51:5e:95
                Exponent: 65537 (0x10001)
        X509v3 extensions:
            X509v3 Basic Constraints: 
                CA:FALSE
            X509v3 Key Usage: critical
                Digital Signature, Non Repudiation, Key Encipherment
            Netscape Cert Type: 
                SSL Client, S/MIME
            Netscape Comment: 
                OpenSSL Generated Client Certificate
    Signature Algorithm: sha384WithRSAEncryption
        1b:55:9e:a3:0f:4f:39:a7:82:41:d4:ea:68:92:c8:b7:ea:c4:
        aa:1f:99:a5:71:36:00:82:cf:2f:f3:58:d6:49:7a:f0:c8:4a:
        b5:b4:bc:6e:a6:44:d7:a3:34:ba:d9:60:d4:7a:b8:75:5f:e6:
        56:45:41:12:2b:94:f0:63:f0:04:a4:8e:c4:ff:2d:90:97:f6:
        fe:8d:2f:5d:2e:22:f2:ea:05:aa:af:e7:fe:94:87:15:26:dc:
        8a:c6:cf:5f:99:e2:63:62:a9:6f:fd:12:fc:9c:eb:a5:ac:97:
        b2:4f:7f:a6:1a:8e:15:3a:08:a2:82:a2:3d:ad:3d:96:38:55:
        c9:6a:7b:d5:17:04:25:a0:48:c9:59:83:c1:bb:66:03:a8:b5:
        48:33:5c:7e:1d:26:03:79:a8:87:6e:64:f8:99:dd:69:c4:b7:
        6f:de:ca:75:b2:f7:85:72:7a:42:a0:5d:b1:c0:83:0b:62:20:
        bb:59:c8:33:c7:a6:d5:13:90:01:9f:57:6d:b1:2a:92:48:64:
        ea:15:d6:31:33:e2:f4:a6:20:c8:71:2e:ea:76:ed:d4:3b:ec:
        52:d2:8a:17:b8:35:56:fd:b6:ec:3f:c9:32:fa:79:0e:5e:7a:
        8b:7c:97:13:3c:7d:64:c6:bb:b5:c7:19:a1:4e:4f:4c:07:8b:
        df:ea:f2:2c:59:1c:ba:c2:c2:a2:ea:bd:75:77:64:b1:f2:b5:
        9d:2a:28:4e:35:89:06:fd:40:2d:52:94:f3:81:41:5a:bf:55:
        f0:bf:37:3d:b1:6f:90:67:fa:c9:61:db:b8:95:86:ca:3f:11:
        20:6a:c8:17:16:08:c3:4a:4a:fd:5a:c3:16:22:bf:2f:83:d8:
        3d:17:57:4f:80:29:be:72:81:3f:e0:41:39:cb:de:96:3f:be:
        8c:33:4c:00:d9:8d:01:43:c5:ca:3c:f9:d6:90:10:80:4b:25:
        ef:ee:bc:16:ee:aa:47:cf:bf:da:11:23:61:b5:11:9a:57:0a:
        97:28:49:5c:22:5c:e2:8b:2a:66:e1:fb:fa:0d:04:3e:3e:9e:
        63:0a:3f:81:48:fd:02:f5:87:f8:08:7c:62:72:70:b8:ec:70:
        da:7d:73:f3:92:9b:69:84:94:fb:36:ce:6e:fa:54:ef:5f:d7:
        42:4a:ff:40:31:82:28:b2:e1:d1:ad:b6:32:a2:0d:32:98:48:
        1d:aa:e7:71:b1:a3:38:1a:a4:a2:f6:0f:0e:52:d4:b7:66:50:
        1f:21:b7:35:ca:7d:bd:9e:76:89:75:ce:65:46:e5:9e:5a:26:
        77:f9:ba:92:c3:e9:73:2d:c9:5d:d9:2b:44:e2:cf:25:2d:90:
        bf:ec:e5:ff:47:2a:0a:10:28:52:b2:a7:e2:b7:76:29:13:de:
        cb:1a:cc:d1:b3:6c:81:eb:f2:d8:f4:29:ad:b4:18:b2:4e:f3:
        3c:1c:21:0a:ff:f0:c6:1e:64:db:9f:5d:c7:ef:50:bd:28:7d:
        c6:97:1a:0a:90:53:f6:a6:95:77:2e:cd:89:ff:c1:01:73:95:
        bb:f3:c3:0c:c4:8b:21:56:9c:bf:c1:b4:61:f3:c7:56:20:09:
        80:a4:cf:d4:cf:f6:5a:bb:f1:45:3d:c9:87:ad:43:03:d6:5b:
        f3:5c:17:e0:44:90:55:31:e4:bf:80:8c:3a:09:e3:74:c1:52:
        57:ac:57:58:3b:32:f6:87:b8:6d:a5:bf:48:0f:94:63:e5:4d:
        79:95:d7:c8:62:03:30:11:32:1a:8e:68:d4:07:b6:39:77:37:
        ca:90:95:c9:5d:73:33:64:ea:85:a7:61:dd:73:4b:e9:25:dc:
        03:4b:ac:5e:c3:05:27:4b:cf:2e:df:5a:14:1c:0e:d8:99:af:
        9d:aa:52:3a:36:ef:b1:e4:c8:1b:b9:6d:c6:84:59:85:89:68:
        09:44:63:1a:59:9c:81:72:e1:b8:88:e6:95:c5:8d:23:35:6a:
        8a:dd:d8:ad:3d:52:45:79:00:b5:c0:83:47:95:20:59:4c:cf:
        57:a3:b9:04:fe:63:88:31:3a:a5:98:4d:37:a2:98:40:02:61:
        f6:40:f6:95:e4:d7:44:17:05:96:87:c4:e8:55:56:07:2a:bc:
        0e:4c:9c:b5:ec:11:18:1d:15:12:43:2b:e1:2d:cd:d2:c0:ae:
        51:a0:9d:aa:97:8b:a5:3e:0b:bc:b1:d6:4f:1e:b9:29:7c:f1:
        b0:8d:24:00:b2:0d:0e:df:79:c1:d9:d7:68:f5:5c:7f:18:3f:
        1e:ab:33:b0:e0:10:29:9c:e7:74:bc:fc:d9:7b:de:9e:ea:09:
        d3:e8:2d:e2:05:18:84:91:de:5a:a9:b3:71:20:a4:97:f5:76:
        2d:03:d5:42:b2:b0:d7:8e:1c:b9:9c:04:20:9b:a3:58:10:9b:
        36:66:1f:b4:39:df:72:5a:3e:0c:6e:f3:0d:bc:02:19:cc:d3:
        6b:94:e1:70:69:1c:f2:88:a4:8d:29:97:9a:31:d5:7f:3f:76:
        46:68:0e:ce:b2:be:60:1a:eb:c8:34:6a:5d:52:21:6b:38:b5:
        06:77:4a:9b:ee:00:63:02:72:b7:fd:cd:54:ef:11:7d:27:08:
        94:b8:93:b2:4c:99:64:8f:25:ed:84:c1:96:e7:8b:43:a8:29:
        f0:c1:52:93:6b:a2:bc:00:09:31:03:4a:99:93:02:44:12:05:
        a6:b1:26:d6:9a:09:36:01:f2:d7:35:6b:69:86:81:fb
-----BEGIN CERTIFICATE-----
MIIGIDCCAgigAwIBAgICAXowDQYJKoZIhvcNAQEMBQAwWTELMAkGA1UEBhMCVUcx
DzANBgNVBAcTBlRyb3BpYzEPMA0GA1UEChMGVXRvcGlhMRMwEQYDVQQLEwpSZWxh
eGF0aW9uMRMwEQYDVQQDEwp0aGUgYmlnIENBMB4XDTEyMDIwOTE4NDgwNVoXDTI1
MTAxODE4NDgwNVowajELMAkGA1UEBhMCVUcxDzANBgNVBAcTBlRyb3BpYzEPMA0G
A1UEChMGVXRvcGlhMRMwEQYDVQQLEwpSZWxheGF0aW9uMSQwIgYDVQQDExtiaWcg
Y2xpZW50IHdpdGggc2hhMzg0IGhhc2gwgZ8wDQYJKoZIhvcNAQEBBQADgY0AMIGJ
AoGBALIu1Zo3EwRgjvcBpXbmEH1NkkXAuCv5650I5ElZd3dBhUjO4lzUx5F+6FEB
/DdSoVjBUVrpVh+xvkqGrVEOR2SPUnBzrq/NuxKk7mE4rVGMppsHiVpNj7MqIgyq
83RgsSsTE7Zd8f28YELf1RVoF918bU3CWPmaJKzFHgcuUV6VAgMBAAGjZTBjMAkG
A1UdEwQCMAAwDgYDVR0PAQH/BAQDAgXgMBEGCWCGSAGG+EIBAQQEAwIFoDAzBglg
hkgBhvhCAQ0EJhYkT3BlblNTTCBHZW5lcmF0ZWQgQ2xpZW50IENlcnRpZmljYXRl
MA0GCSqGSIb3DQEBDAUAA4IEAQAbVZ6jD085p4JB1Opoksi36sSqH5mlcTYAgs8v
81jWSXrwyEq1tLxupkTXozS62WDUerh1X+ZWRUESK5TwY/AEpI7E/y2Ql/b+jS9d
LiLy6gWqr+f+lIcVJtyKxs9fmeJjYqlv/RL8nOulrJeyT3+mGo4VOgiigqI9rT2W
OFXJanvVFwQloEjJWYPBu2YDqLVIM1x+HSYDeaiHbmT4md1pxLdv3sp1sveFcnpC
oF2xwIMLYiC7Wcgzx6bVE5ABn1dtsSqSSGTqFdYxM+L0piDIcS7qdu3UO+xS0ooX
uDVW/bbsP8ky+nkOXnqLfJcTPH1kxru1xxmhTk9MB4vf6vIsWRy6wsKi6r11d2Sx
8rWdKihONYkG/UAtUpTzgUFav1Xwvzc9sW+QZ/rJYdu4lYbKPxEgasgXFgjDSkr9
WsMWIr8vg9g9F1dPgCm+coE/4EE5y96WP76MM0wA2Y0BQ8XKPPnWkBCASyXv7rwW
7qpHz7/aESNhtRGaVwqXKElcIlziiypm4fv6DQQ+Pp5jCj+BSP0C9Yf4CHxicnC4
7HDafXPzkptphJT7Ns5u+lTvX9dCSv9AMYIosuHRrbYyog0ymEgdqudxsaM4GqSi
9g8OUtS3ZlAfIbc1yn29nnaJdc5lRuWeWiZ3+bqSw+lzLcld2StE4s8lLZC/7OX/
RyoKEChSsqfit3YpE97LGszRs2yB6/LY9CmttBiyTvM8HCEK//DGHmTbn13H71C9
KH3GlxoKkFP2ppV3Ls2J/8EBc5W788MMxIshVpy/wbRh88dWIAmApM/Uz/Zau/FF
PcmHrUMD1lvzXBfgRJBVMeS/gIw6CeN0wVJXrFdYOzL2h7htpb9ID5Rj5U15ldfI
YgMwETIajmjUB7Y5dzfKkJXJXXMzZOqFp2Hdc0vpJdwDS6xewwUnS88u31oUHA7Y
ma+dqlI6Nu+x5MgbuW3GhFmFiWgJRGMaWZyBcuG4iOaVxY0jNWqK3ditPVJFeQC1
wINHlSBZTM9Xo7kE/mOIMTqlmE03ophAAmH2QPaV5NdEFwWWh8ToVVYHKrwOTJy1
7BEYHRUSQyvhLc3SwK5RoJ2ql4ulPgu8sdZPHrkpfPGwjSQAsg0O33nB2ddo9Vx/
GD8eqzOw4BApnOd0vPzZe96e6gnT6C3iBRiEkd5aqbNxIKSX9XYtA9VCsrDXjhy5
nAQgm6NYEJs2Zh+0Od9yWj4MbvMNvAIZzNNrlOFwaRzyiKSNKZeaMdV/P3ZGaA7O
sr5gGuvINGpdUiFrOLUGd0qb7gBjAnK3/c1U7xF9JwiUuJOyTJlkjyXthMGW54tD
qCnwwVKTa6K8AAkxA0qZkwJEEgWmsSbWmgk2AfLXNWtphoH7
-----END CERTIFICATE-----
