Certificate:
    Data:
        Version: 3 (0x2)
        Serial Number: 382 (0x17e)
        Signature Algorithm: sha1WithRSAEncryption
        Issuer: C=UG, L=Tropic, O=Utopia, OU=Relaxation, CN=the big CA
        Validity
            Not Before: Feb  9 18:48:07 2012 GMT
            Not After : Feb  8 18:48:07 2012 GMT
        Subject: C=UG, L=Tropic, O=Utopia, OU=Relaxation, CN=big client expired
        Subject Public Key Info:
            Public Key Algorithm: rsaEncryption
                Public-Key: (1024 bit)
                Modulus:
                    00:9b:c6:59:f4:6f:3f:ea:d1:ca:c8:bd:b2:22:e5:
                    c0:36:9c:26:03:f8:d1:7b:e0:22:4c:f7:0e:f9:15:
                    84:75:6e:68:94:56:5d:d9:2a:8b:a2:9c:e9:7c:d5:
                    43:60:4d:c9:6a:bd:c9:81:7e:8a:50:37:b5:00:6d:
                    c3:11:ad:62:80:ea:7f:dc:cf:4b:1e:7c:56:37:f8:
                    f4:f4:fe:1f:5c:45:35:64:c7:31:63:f1:7b:b2:94:
                    e0:83:3d:3e:8d:dc:8d:8c:8a:4b:9a:6f:26:87:26:
                    4e:f7:ed:62:46:83:fc:f4:c0:37:67:10:11:0a:bc:
                    7e:80:e9:2a:b5:04:a5:d2:79
                Exponent: 65537 (0x10001)
        X509v3 extensions:
            X509v3 Basic Constraints: 
                CA:FALSE
            X509v3 Key Usage: critical
                Digital Signature, Non Repudiation, Key Encipherment
            Netscape Cert Type: 
                SSL Client, S/MIME
            Netscape Comment: 
                OpenSSL Generated Client Certificate
    Signature Algorithm: sha1WithRSAEncryption
        2e:50:dd:1f:0c:ce:03:08:f3:d7:11:09:57:98:1b:a4:60:7d:
        ca:db:20:d8:98:57:ca:69:29:8a:c0:07:39:29:e2:9c:eb:9c:
        67:12:c2:0d:e2:cb:fb:5b:20:63:21:7d:da:48:79:c8:8a:5e:
        f8:84:ec:ef:0c:35:e9:4c:96:c4:8b:a8:9c:46:a4:5e:96:8a:
        c2:e7:10:bd:25:d6:4f:70:3a:bd:71:2c:9b:1a:f1:eb:3b:39:
        9a:a4:87:9c:2e:2f:f8:df:ef:36:6e:ad:7c:44:8e:03:c8:af:
        c0:4a:92:e6:1a:2d:ad:f1:9d:fb:63:89:0b:dc:40:c8:61:85:
        cd:43:0e:69:22:73:b3:93:3c:89:75:95:9b:33:2c:49:e1:f0:
        a5:40:0e:10:4f:88:fa:6d:60:d4:16:37:d3:7b:31:17:72:58:
        6a:a5:83:9a:35:bd:a3:48:c5:9b:da:4b:e6:59:b9:47:c8:1e:
        5b:c2:b6:c8:f4:01:2c:f7:a1:b1:02:ef:9b:c6:06:34:0c:b8:
        6d:47:cf:36:ee:8e:0e:5d:2f:92:ee:fa:7b:a3:03:e8:f5:e5:
        58:83:7f:ee:2d:37:d4:1f:97:8d:ea:87:72:b0:6e:fc:d5:18:
        62:c5:12:1e:08:86:f0:d3:ec:40:38:58:d5:98:90:3a:7d:5d:
        88:67:98:b7:8c:82:0c:4e:6f:32:ec:d3:31:c3:dd:6b:ea:bd:
        15:1f:72:34:3d:8a:73:f0:29:65:cf:02:df:72:30:6b:0a:35:
        bb:b1:f8:f9:06:c0:25:b0:b7:38:18:d4:f8:b6:69:1e:34:15:
        72:50:64:3a:51:75:15:3e:c4:cb:9f:7d:7f:43:fa:d6:4a:f3:
        42:bf:d5:f2:0f:5b:54:7f:ee:13:fa:ed:79:3a:fb:f0:bc:8f:
        28:ab:57:1f:fb:ab:11:5f:a3:d3:c1:42:bc:41:9e:84:39:85:
        23:8d:0f:2c:eb:a9:50:70:46:26:bc:b9:9e:1c:c3:1f:7b:22:
        c5:4a:a0:fd:3a:26:e4:d9:a6:bb:7b:d2:bc:ae:99:ec:47:f4:
        e4:4a:03:06:97:d8:55:cd:c1:15:20:64:92:a8:de:7a:fb:0d:
        a2:c8:63:cd:eb:cf:1e:3b:e0:35:ce:96:99:0e:47:7a:fe:b9:
        8a:8b:08:c1:41:b1:32:e0:5f:4b:46:3b:54:81:e2:b2:72:53:
        ec:7b:80:eb:60:df:42:44:d2:47:cd:d6:ad:1a:4f:bb:68:6f:
        fb:6d:93:2c:a2:19:00:ba:b8:0e:dd:1f:1c:ea:46:aa:13:e7:
        28:0b:c7:a0:b4:6c:d8:7c:41:0a:eb:ef:02:fc:a7:5a:9c:1a:
        c9:11:ca:af:e2:06:92:29:57:46:ab:35:c0:11:ef:c0:b2:3c:
        b3:e3:50:71:bd:75:b5:3d:20:2b:d5:96:c3:a8:f3:bd:80:6e:
        de:c3:fc:68:84:41:d8:1f:4e:f4:ff:8e:72:b1:fd:f8:f8:4b:
        19:c6:99:2a:ec:3a:63:6e:4b:a9:29:f1:f5:5e:f0:c6:be:60:
        1e:e6:e8:d9:af:57:2a:82:89:7f:04:20:fa:33:c4:e8:cc:8f:
        b4:00:cc:a7:3b:22:de:fe:5b:e4:7f:ff:fb:73:cc:cb:9c:7c:
        1c:53:c1:3e:3a:b7:49:aa:28:df:4d:72:ca:71:16:df:a5:6f:
        1a:48:9a:7c:06:f5:4f:47:f6:e1:dc:89:ba:61:f5:b2:c4:30:
        66:f9:a7:29:52:72:30:fc:ad:7b:c6:33:1c:22:29:ae:42:8d:
        a1:28:b5:15:c7:6a:d5:84:42:05:bf:6a:bd:1d:b0:f8:b0:9c:
        ce:4c:9b:c9:a1:f1:79:cd:24:21:56:d9:ca:8e:4e:91:15:b2:
        c8:40:bc:c0:a8:c3:75:89:11:50:bc:a5:91:59:24:4f:91:22:
        81:fe:16:3b:c1:e0:b0:d6:19:a8:20:a9:07:05:5e:94:e9:c2:
        10:87:f9:73:23:72:9a:cd:fd:54:95:d3:56:29:ab:47:68:79:
        87:57:23:e8:b2:ce:c3:4a:a1:f8:83:66:4a:ae:91:f7:41:3b:
        b3:a1:cc:66:af:a1:f7:bd:2f:c7:d3:8f:9a:e1:78:86:f4:15:
        7a:89:87:e9:b6:34:a4:5f:07:f9:a9:0d:c8:a9:ad:05:9b:63:
        71:16:3a:64:3b:25:7b:9a:55:37:ad:73:58:1f:6b:e4:c6:7e:
        8a:17:34:a6:b7:4d:52:63:5c:64:d7:58:85:20:f9:80:85:3c:
        03:53:96:cc:be:3a:19:b5:0c:28:bf:f2:00:15:93:78:bb:5c:
        83:df:51:e7:36:9f:4c:ff:21:da:d7:50:c3:d6:f4:55:a1:e1:
        4f:05:22:53:76:dd:ae:80:90:95:87:33:43:b1:a9:2d:ee:9c:
        91:01:6b:55:56:a4:b2:73:6f:26:c9:84:41:06:16:e0:7e:18:
        9a:b9:5f:6f:94:4c:52:c5:56:fc:01:c6:43:00:c6:30:09:86:
        0b:0e:b7:a0:e7:82:af:ce:37:b9:f9:bb:7b:1a:fa:46:72:7b:
        0f:f2:54:7a:b9:cb:df:8e:d4:9b:9e:5e:9c:0d:60:98:ca:32:
        64:76:32:7b:d8:7b:fa:ad:20:28:3a:b5:0a:2e:39:e1:88:0d:
        37:19:04:a5:63:1b:81:04:f6:00:dd:63:2c:b5:c8:a1:15:f3:
        11:bf:94:c3:3c:88:e9:2d:d8:35:fd:da:01:24:5a:13
-----BEGIN CERTIFICATE-----
MIIGFzCCAf+gAwIBAgICAX4wDQYJKoZIhvcNAQEFBQAwWTELMAkGA1UEBhMCVUcx
DzANBgNVBAcTBlRyb3BpYzEPMA0GA1UEChMGVXRvcGlhMRMwEQYDVQQLEwpSZWxh
eGF0aW9uMRMwEQYDVQQDEwp0aGUgYmlnIENBMB4XDTEyMDIwOTE4NDgwN1oXDTEy
MDIwODE4NDgwN1owYTELMAkGA1UEBhMCVUcxDzANBgNVBAcTBlRyb3BpYzEPMA0G
A1UEChMGVXRvcGlhMRMwEQYDVQQLEwpSZWxheGF0aW9uMRswGQYDVQQDExJiaWcg
Y2xpZW50IGV4cGlyZWQwgZ8wDQYJKoZIhvcNAQEBBQADgY0AMIGJAoGBAJvGWfRv
P+rRysi9siLlwDacJgP40XvgIkz3DvkVhHVuaJRWXdkqi6Kc6XzVQ2BNyWq9yYF+
ilA3tQBtwxGtYoDqf9zPSx58Vjf49PT+H1xFNWTHMWPxe7KU4IM9Po3cjYyKS5pv
JocmTvftYkaD/PTAN2cQEQq8foDpKrUEpdJ5AgMBAAGjZTBjMAkGA1UdEwQCMAAw
DgYDVR0PAQH/BAQDAgXgMBEGCWCGSAGG+EIBAQQEAwIFoDAzBglghkgBhvhCAQ0E
JhYkT3BlblNTTCBHZW5lcmF0ZWQgQ2xpZW50IENlcnRpZmljYXRlMA0GCSqGSIb3
DQEBBQUAA4IEAQAuUN0fDM4DCPPXEQlXmBukYH3K2yDYmFfKaSmKwAc5KeKc65xn
EsIN4sv7WyBjIX3aSHnIil74hOzvDDXpTJbEi6icRqRelorC5xC9JdZPcDq9cSyb
GvHrOzmapIecLi/43+82bq18RI4DyK/ASpLmGi2t8Z37Y4kL3EDIYYXNQw5pInOz
kzyJdZWbMyxJ4fClQA4QT4j6bWDUFjfTezEXclhqpYOaNb2jSMWb2kvmWblHyB5b
wrbI9AEs96GxAu+bxgY0DLhtR8827o4OXS+S7vp7owPo9eVYg3/uLTfUH5eN6ody
sG781RhixRIeCIbw0+xAOFjVmJA6fV2IZ5i3jIIMTm8y7NMxw91r6r0VH3I0PYpz
8CllzwLfcjBrCjW7sfj5BsAlsLc4GNT4tmkeNBVyUGQ6UXUVPsTLn31/Q/rWSvNC
v9XyD1tUf+4T+u15OvvwvI8oq1cf+6sRX6PTwUK8QZ6EOYUjjQ8s66lQcEYmvLme
HMMfeyLFSqD9Oibk2aa7e9K8rpnsR/TkSgMGl9hVzcEVIGSSqN56+w2iyGPN688e
O+A1zpaZDkd6/rmKiwjBQbEy4F9LRjtUgeKyclPse4DrYN9CRNJHzdatGk+7aG/7
bZMsohkAurgO3R8c6kaqE+coC8egtGzYfEEK6+8C/KdanBrJEcqv4gaSKVdGqzXA
Ee/Asjyz41BxvXW1PSAr1ZbDqPO9gG7ew/xohEHYH070/45ysf34+EsZxpkq7Dpj
bkupKfH1XvDGvmAe5ujZr1cqgol/BCD6M8TozI+0AMynOyLe/lvkf//7c8zLnHwc
U8E+OrdJqijfTXLKcRbfpW8aSJp8BvVPR/bh3Im6YfWyxDBm+acpUnIw/K17xjMc
IimuQo2hKLUVx2rVhEIFv2q9HbD4sJzOTJvJofF5zSQhVtnKjk6RFbLIQLzAqMN1
iRFQvKWRWSRPkSKB/hY7weCw1hmoIKkHBV6U6cIQh/lzI3Kazf1UldNWKatHaHmH
VyPoss7DSqH4g2ZKrpH3QTuzocxmr6H3vS/H04+a4XiG9BV6iYfptjSkXwf5qQ3I
qa0Fm2NxFjpkOyV7mlU3rXNYH2vkxn6KFzSmt01SY1xk11iFIPmAhTwDU5bMvjoZ
tQwov/IAFZN4u1yD31HnNp9M/yHa11DD1vRVoeFPBSJTdt2ugJCVhzNDsakt7pyR
AWtVVqSyc28myYRBBhbgfhiauV9vlExSxVb8AcZDAMYwCYYLDreg54Kvzje5+bt7
GvpGcnsP8lR6ucvfjtSbnl6cDWCYyjJkdjJ72Hv6rSAoOrUKLjnhiA03GQSlYxuB
BPYA3WMstcihFfMRv5TDPIjpLdg1/doBJFoT
-----END CERTIFICATE-----
