Certificate:
    Data:
        Version: 3 (0x2)
        Serial Number: 380 (0x17c)
        Signature Algorithm: sha1WithRSAEncryption
        Issuer: C=UG, L=Tropic, O=Utopia, OU=Relaxation, CN=the big CA
        Validity
            Not Before: Feb  9 18:48:05 2012 GMT
            Not After : Oct 18 18:48:05 2025 GMT
        Subject: C=UG, L=Tropic, O=Utopia, OU=Chilling, CN=big client with bad DN
        Subject Public Key Info:
            Public Key Algorithm: rsaEncryption
                Public-Key: (1024 bit)
                Modulus:
                    00:cb:36:55:2a:4d:ca:ac:b6:7e:6a:b8:54:a3:4c:
                    c5:19:80:bb:e0:cb:f7:4f:f1:3a:fd:f8:85:9d:c5:
                    9e:eb:6f:f9:88:e8:17:9d:c0:74:a9:84:47:eb:53:
                    84:fd:72:09:b3:4f:f7:2d:a9:c3:7f:c1:c1:45:59:
                    67:ad:b4:39:6b:e0:09:e6:64:43:b6:d7:b0:e3:27:
                    47:a2:f7:1f:3d:5e:c8:d6:f8:6e:47:df:6b:68:2f:
                    a6:37:a5:46:46:6b:0b:c9:ed:ff:14:bf:e4:1c:7a:
                    70:2b:19:bf:30:de:a1:9d:1b:9d:15:8f:ba:2f:00:
                    3b:db:ab:f6:95:e0:4c:f8:69
                Exponent: 65537 (0x10001)
        X509v3 extensions:
            X509v3 Basic Constraints: 
                CA:FALSE
            X509v3 Key Usage: critical
                Digital Signature, Non Repudiation, Key Encipherment
            Netscape Cert Type: 
                SSL Client, S/MIME
            Netscape Comment: 
                OpenSSL Generated Client Certificate
    Signature Algorithm: sha1WithRSAEncryption
        d4:91:97:31:d1:a9:02:9a:6f:9b:fb:12:d6:f8:c6:26:e6:d0:
        ff:a4:05:f8:8e:b8:40:1d:13:c1:68:43:2a:de:39:9c:4e:1f:
        e8:e7:66:b0:ab:b5:1e:68:57:00:f1:55:5f:97:3d:06:c0:70:
        44:fc:91:36:5e:db:b9:a4:7b:a3:2f:81:01:9b:75:5e:62:c9:
        e8:b1:81:25:b4:42:43:2f:da:09:8d:a7:97:29:b4:27:4d:09:
        e1:f7:a6:4f:a9:63:c9:5a:54:4b:74:1c:2f:a4:9d:94:cd:95:
        58:84:e1:83:d2:7f:3d:4d:44:1e:5d:29:5c:b7:7c:fd:3e:f4:
        3a:89:8d:3f:23:df:86:cc:ae:cd:f9:69:76:cd:e5:19:72:b5:
        b1:fa:00:25:8d:73:cb:f9:58:ca:fe:85:c0:77:55:b0:87:2f:
        31:00:dd:a0:2c:7d:59:8c:9c:25:42:64:65:f8:33:2b:b5:b5:
        85:83:a4:63:d7:4d:63:de:ee:9f:87:73:0d:da:dd:5b:36:30:
        92:23:50:99:03:88:01:42:3f:a9:c3:5b:45:8f:21:46:6c:e5:
        fa:9c:ae:8b:9a:35:dd:9f:29:a9:bf:90:df:32:73:2f:13:94:
        2d:46:97:1e:8d:d4:23:8c:de:ff:cc:18:06:4f:de:a5:e2:d6:
        d6:c2:dd:17:bd:99:e4:cc:6c:e5:73:88:31:17:16:d5:3f:23:
        93:32:78:e5:92:8e:e7:c1:dc:84:8e:1a:ac:9c:c0:71:ab:46:
        a8:23:86:35:b6:d3:8d:39:ca:6f:ea:cb:6f:85:cb:43:da:7f:
        a9:b5:c4:f7:56:a7:6e:23:b6:c1:38:22:57:76:32:75:08:a3:
        b8:4a:e0:d7:36:0e:ae:e1:ef:e1:5b:76:29:dd:ad:92:55:e9:
        08:14:f8:61:a1:c9:f2:da:8b:b7:b0:8e:2a:61:ec:75:ad:f9:
        8e:fe:7a:a0:a8:41:3c:eb:e0:3c:19:dc:be:5d:e4:68:30:6a:
        02:6e:bd:d8:29:85:28:98:e0:9b:48:01:d6:cd:c5:ce:d8:46:
        10:93:6b:9d:fc:2c:c6:a3:ce:21:c2:6b:de:5b:45:2e:c2:b3:
        25:ed:8e:40:a6:90:05:ec:ca:08:bb:d3:e7:e4:ea:b4:08:da:
        c0:0c:9b:94:fd:e3:9c:31:41:1f:ee:19:7b:7c:8a:52:63:27:
        56:f8:c6:32:ac:b8:d8:1f:28:98:1e:30:b2:ae:fb:04:df:a0:
        b2:9e:6a:73:82:c0:62:28:8c:c2:c5:b8:c0:a7:31:c8:50:be:
        ff:aa:cc:ae:db:7b:1a:43:f9:f5:20:a7:27:0d:64:ee:1e:27:
        68:b6:ea:0b:e9:05:0d:56:c9:25:0a:55:2e:7a:13:9a:a3:2b:
        32:79:86:b6:9f:7b:c1:7c:f8:d7:93:b3:7a:a4:66:ab:3d:43:
        98:c9:8c:75:96:38:25:18:49:0d:53:97:64:64:70:7d:d0:e9:
        cd:bf:95:12:32:b0:fb:4e:4f:47:2f:91:2c:7f:ed:5e:7f:47:
        85:75:bb:fd:b9:4f:14:d0:18:11:94:b7:08:74:d3:ea:68:65:
        dc:dc:2f:45:41:41:66:41:c0:bb:b2:00:29:9d:c4:80:81:f3:
        a2:8a:3c:a0:1a:2d:40:7b:31:dd:20:a6:39:17:cc:e3:81:f4:
        bb:b5:0b:29:9b:11:0e:f8:3f:67:da:fb:30:58:38:80:18:bf:
        af:13:a8:34:68:7f:a6:ad:71:1a:36:18:5b:40:e3:d2:7a:dc:
        95:1b:ed:b4:56:39:27:12:c4:5d:4a:75:74:57:4b:f6:b0:07:
        0e:bd:c4:bf:4d:68:32:88:af:ed:bd:1d:81:f1:e1:eb:ae:43:
        45:61:ae:22:2b:6d:3f:03:82:a3:8d:b6:fa:f7:a7:41:1d:6c:
        ba:5e:bd:ed:1a:e5:9f:73:5f:cb:0c:8f:59:90:59:16:1c:8d:
        e0:7a:7e:03:21:ee:93:25:23:3e:74:4a:bc:47:47:6c:45:19:
        26:dc:3e:71:c1:91:21:38:41:47:42:56:af:30:95:49:73:0a:
        8b:83:9c:e1:8d:0e:51:e8:58:0d:ca:da:98:b9:94:b2:3e:81:
        7a:a2:26:2b:e1:f6:26:30:6a:62:d6:55:90:16:6a:90:e8:bb:
        59:28:aa:cc:f6:35:2c:27:52:cb:ae:35:2f:1d:8b:d4:54:07:
        e5:0c:c5:41:34:2c:02:1c:cd:70:7c:9d:c5:bf:7e:08:30:bc:
        8b:90:1e:b4:ef:3b:95:ed:0e:ff:6d:ea:eb:bc:87:83:44:67:
        72:90:02:02:2c:fb:02:1e:00:d2:d2:4a:9b:3d:1d:94:b7:fd:
        ca:73:04:da:6a:45:0c:11:bd:a0:44:d0:d6:99:0b:e2:b2:d3:
        bb:1d:c7:79:f6:ea:a2:d8:fa:53:29:b3:85:c8:9b:1a:a4:4d:
        78:92:0a:b2:39:78:b3:fa:8b:ed:46:8a:bf:00:85:67:8c:0a:
        85:01:6b:93:7a:ef:a0:7a:28:41:2a:12:44:ea:23:fc:f4:8d:
        91:e0:9a:e7:3d:57:6b:80:1f:e1:4f:45:6b:3d:54:7a:11:f6:
        f4:cd:50:b7:9a:9a:fe:9e:1b:58:60:8e:1b:05:04:01:5c:f9:
        f4:dc:55:80:29:dc:5b:d9:9d:d4:d1:0f:13:28:84:e6:cc:10:
        46:7c:8a:5a:e6:fe:48:7c:e7:f4:09:14:ab:b3:2b:7f
-----BEGIN CERTIFICATE-----
MIIGGTCCAgGgAwIBAgICAXwwDQYJKoZIhvcNAQEFBQAwWTELMAkGA1UEBhMCVUcx
DzANBgNVBAcTBlRyb3BpYzEPMA0GA1UEChMGVXRvcGlhMRMwEQYDVQQLEwpSZWxh
eGF0aW9uMRMwEQYDVQQDEwp0aGUgYmlnIENBMB4XDTEyMDIwOTE4NDgwNVoXDTI1
MTAxODE4NDgwNVowYzELMAkGA1UEBhMCVUcxDzANBgNVBAcTBlRyb3BpYzEPMA0G
A1UEChMGVXRvcGlhMREwDwYDVQQLEwhDaGlsbGluZzEfMB0GA1UEAxMWYmlnIGNs
aWVudCB3aXRoIGJhZCBETjCBnzANBgkqhkiG9w0BAQEFAAOBjQAwgYkCgYEAyzZV
Kk3KrLZ+arhUo0zFGYC74Mv3T/E6/fiFncWe62/5iOgXncB0qYRH61OE/XIJs0/3
LanDf8HBRVlnrbQ5a+AJ5mRDttew4ydHovcfPV7I1vhuR99raC+mN6VGRmsLye3/
FL/kHHpwKxm/MN6hnRudFY+6LwA726v2leBM+GkCAwEAAaNlMGMwCQYDVR0TBAIw
ADAOBgNVHQ8BAf8EBAMCBeAwEQYJYIZIAYb4QgEBBAQDAgWgMDMGCWCGSAGG+EIB
DQQmFiRPcGVuU1NMIEdlbmVyYXRlZCBDbGllbnQgQ2VydGlmaWNhdGUwDQYJKoZI
hvcNAQEFBQADggQBANSRlzHRqQKab5v7Etb4xibm0P+kBfiOuEAdE8FoQyreOZxO
H+jnZrCrtR5oVwDxVV+XPQbAcET8kTZe27mke6MvgQGbdV5iyeixgSW0QkMv2gmN
p5cptCdNCeH3pk+pY8laVEt0HC+knZTNlViE4YPSfz1NRB5dKVy3fP0+9DqJjT8j
34bMrs35aXbN5RlytbH6ACWNc8v5WMr+hcB3VbCHLzEA3aAsfVmMnCVCZGX4Myu1
tYWDpGPXTWPe7p+Hcw3a3Vs2MJIjUJkDiAFCP6nDW0WPIUZs5fqcrouaNd2fKam/
kN8ycy8TlC1Glx6N1COM3v/MGAZP3qXi1tbC3Re9meTMbOVziDEXFtU/I5MyeOWS
jufB3ISOGqycwHGrRqgjhjW20405ym/qy2+Fy0Paf6m1xPdWp24jtsE4Ild2MnUI
o7hK4Nc2Dq7h7+FbdindrZJV6QgU+GGhyfLai7ewjiph7HWt+Y7+eqCoQTzr4DwZ
3L5d5GgwagJuvdgphSiY4JtIAdbNxc7YRhCTa538LMajziHCa95bRS7CsyXtjkCm
kAXsygi70+fk6rQI2sAMm5T945wxQR/uGXt8ilJjJ1b4xjKsuNgfKJgeMLKu+wTf
oLKeanOCwGIojMLFuMCnMchQvv+qzK7bexpD+fUgpycNZO4eJ2i26gvpBQ1WySUK
VS56E5qjKzJ5hrafe8F8+NeTs3qkZqs9Q5jJjHWWOCUYSQ1Tl2RkcH3Q6c2/lRIy
sPtOT0cvkSx/7V5/R4V1u/25TxTQGBGUtwh00+poZdzcL0VBQWZBwLuyACmdxICB
86KKPKAaLUB7Md0gpjkXzOOB9Lu1CymbEQ74P2fa+zBYOIAYv68TqDRof6atcRo2
GFtA49J63JUb7bRWOScSxF1KdXRXS/awBw69xL9NaDKIr+29HYHx4euuQ0VhriIr
bT8DgqONtvr3p0EdbLpeve0a5Z9zX8sMj1mQWRYcjeB6fgMh7pMlIz50SrxHR2xF
GSbcPnHBkSE4QUdCVq8wlUlzCouDnOGNDlHoWA3K2pi5lLI+gXqiJivh9iYwamLW
VZAWapDou1koqsz2NSwnUsuuNS8di9RUB+UMxUE0LAIczXB8ncW/fggwvIuQHrTv
O5XtDv9t6uu8h4NEZ3KQAgIs+wIeANLSSps9HZS3/cpzBNpqRQwRvaBE0NaZC+Ky
07sdx3n26qLY+lMps4XImxqkTXiSCrI5eLP6i+1Gir8AhWeMCoUBa5N676B6KEEq
EkTqI/z0jZHgmuc9V2uAH+FPRWs9VHoR9vTNULeamv6eG1hgjhsFBAFc+fTcVYAp
3FvZndTRDxMohObMEEZ8ilrm/kh85/QJFKuzK38=
-----END CERTIFICATE-----
