Certificate:
    Data:
        Version: 3 (0x2)
        Serial Number: 383 (0x17f)
        Signature Algorithm: sha1WithRSAEncryption
        Issuer: C=UG, L=Tropic, O=Utopia, OU=Relaxation, CN=the big CA
        Validity
            Not Before: Feb  9 18:48:07 2012 GMT
            Not After : Oct 18 18:48:07 2025 GMT
        Subject: C=UG, L=Tropic, O=Utopia, OU=Relaxation, CN=big client revoked
        Subject Public Key Info:
            Public Key Algorithm: rsaEncryption
                Public-Key: (1024 bit)
                Modulus:
                    00:ba:d5:e8:ab:8e:79:65:2d:64:65:9e:85:ef:da:
                    34:d0:53:fb:e9:e4:fa:d8:59:0a:2b:fd:30:46:f3:
                    98:43:e7:bb:6c:d3:a3:c0:4a:f8:22:70:dd:d9:86:
                    11:42:60:e1:d9:64:aa:90:7a:e6:4f:eb:54:52:bf:
                    38:e4:3e:41:47:79:9e:5a:cb:c0:d5:a9:95:e0:55:
                    9e:b5:20:7e:cf:1e:54:ab:b6:54:6e:52:3d:ea:e7:
                    6c:7b:9a:aa:aa:0f:24:10:d3:2c:37:7b:a6:23:73:
                    c1:43:5d:26:40:93:86:d8:46:a0:04:f5:25:47:9e:
                    f1:95:e9:fe:51:f9:48:66:09
                Exponent: 65537 (0x10001)
        X509v3 extensions:
            X509v3 Basic Constraints: 
                CA:FALSE
            X509v3 Key Usage: critical
                Digital Signature, Non Repudiation, Key Encipherment
            Netscape Cert Type: 
                SSL Client, S/MIME
            Netscape Comment: 
                OpenSSL Generated Client Certificate
    Signature Algorithm: sha1WithRSAEncryption
        de:fd:8f:4d:4a:5b:09:15:6b:d8:71:75:6e:a6:cd:35:c9:57:
        7c:a6:ce:21:d1:35:aa:5b:32:c7:4d:6e:dc:ea:9f:ce:e3:20:
        3d:c5:7b:e9:ae:85:b4:b2:6d:34:76:4d:d5:b3:62:6b:f9:d4:
        a9:56:5a:99:96:0a:e2:a5:91:10:64:a5:d2:01:64:82:1c:4e:
        e2:0f:42:6b:48:25:88:dd:fd:5c:4b:52:06:0e:c9:36:b0:7e:
        c1:dc:20:df:77:2a:f9:2a:50:f5:0e:d7:ad:68:96:4f:5c:62:
        f4:04:cd:d3:2e:6d:9a:1f:51:61:b1:69:76:f0:70:9c:c0:88:
        28:bb:a1:c6:1c:a5:13:3c:d1:45:1b:21:b8:2f:b8:fa:10:5e:
        4f:3f:0e:82:84:07:4f:82:4d:cf:6b:c8:23:a4:90:90:7b:0c:
        6d:d4:0e:b6:39:3d:37:e4:7e:23:73:bb:b6:b0:8b:b2:1d:83:
        7a:f6:e7:35:bb:2a:56:8a:5c:53:0a:73:e7:21:2c:3c:2e:58:
        09:2a:ab:2e:bf:32:9c:82:89:e2:08:9c:fc:e5:4a:9d:be:3e:
        48:f3:a6:24:82:d5:12:99:37:38:1d:c0:d3:c9:f1:5f:d2:b7:
        af:77:3e:58:e9:50:d2:dc:b1:83:54:fc:25:ea:f0:5a:1a:c0:
        41:26:b4:7b:e8:b5:a7:91:99:81:1b:07:70:6b:8f:d3:a9:2c:
        fa:aa:a1:c4:89:e1:8e:7a:87:bd:75:0e:c2:71:8c:11:33:b1:
        c8:a2:1f:89:07:53:3e:d6:79:d9:61:a7:6c:0e:69:0f:4e:ce:
        20:99:19:d8:8b:01:26:44:49:21:b5:15:e7:90:3f:6e:4b:4d:
        82:89:8e:ae:a2:ec:b6:bf:7b:71:02:4b:68:70:1f:53:41:80:
        9e:8b:21:1d:9a:17:74:4c:4d:8d:bb:b2:73:b0:7c:0c:75:b3:
        c1:dd:f1:0b:e1:2f:e0:32:13:5e:74:a3:22:ac:b1:6a:20:dd:
        0d:a5:7a:80:c9:12:a4:fd:d8:e6:ed:8c:ef:57:32:a2:bd:2f:
        1a:68:66:60:cb:08:21:cd:bc:66:c3:b4:da:93:0f:17:9b:f3:
        69:83:0e:ae:d3:0e:06:ca:20:ca:95:b0:4e:24:1e:d6:55:32:
        63:92:cb:69:38:5e:d6:13:4f:96:46:bd:18:b8:9f:3d:c6:e4:
        b0:8d:a8:86:1c:9f:0f:56:6b:a8:f8:0d:c8:25:63:ab:c4:e6:
        c1:95:60:39:30:63:89:ab:7c:78:a0:c9:0e:d6:75:82:5e:79:
        ec:5d:84:6b:26:d5:e5:56:98:48:7b:81:f3:c1:ed:ce:c8:a4:
        89:82:90:92:a9:4e:98:ea:11:f8:48:82:e4:19:1e:ac:d3:f1:
        50:3a:4e:17:56:d0:d7:2a:b0:c7:91:ad:a5:09:1e:77:3e:b9:
        73:b7:e5:51:f3:0a:d6:58:b1:6f:5b:37:46:0f:90:3e:71:65:
        67:44:ad:3e:60:cc:a2:bc:57:e1:60:39:e0:0c:5a:b6:db:a3:
        46:a7:f9:cd:8e:7c:29:54:1d:09:5b:00:d9:61:f7:b3:f2:0c:
        85:13:76:fb:8b:8f:f5:74:38:5d:9c:4e:53:ad:1d:df:5a:ec:
        34:b2:01:2e:f5:aa:3b:16:c8:13:37:76:c5:bb:c4:7f:2f:d4:
        cc:c5:9a:d4:8b:82:1a:01:bc:7d:dd:2f:9c:02:d1:43:fc:ae:
        b1:58:7b:cb:8c:aa:e6:15:36:9b:f4:dc:0b:cc:76:4e:c3:3e:
        21:6f:65:f9:f0:9b:69:75:8d:a8:4f:da:8b:b7:06:9b:dc:94:
        39:2d:32:21:1e:74:fe:72:42:dd:df:49:60:5b:cc:c4:52:5f:
        4b:76:2a:92:db:83:ce:f9:ef:48:56:82:75:cd:a3:dc:69:65:
        07:75:7f:ce:2f:57:cf:a7:b8:2f:4d:04:5f:57:86:b3:5a:c1:
        0e:55:cf:99:f2:fe:40:56:13:2e:08:b0:b2:62:09:77:db:d8:
        8c:a5:46:c7:22:e0:3b:71:01:bb:bc:fd:de:38:fc:9f:b1:28:
        8d:1a:85:1e:13:70:fc:30:1c:4f:12:f6:35:48:ae:6c:03:e4:
        bf:62:ee:c2:ca:02:23:e7:d1:36:b2:e4:0a:5d:38:0b:82:1c:
        51:bc:d2:77:d9:45:be:9a:5a:26:32:03:72:0e:98:8e:d6:74:
        ab:a4:e6:8a:4c:72:76:24:66:f4:ea:ba:3f:86:c4:9d:21:c2:
        03:86:2a:87:14:47:14:5c:fe:a4:39:c2:54:88:b3:47:f9:b8:
        8a:f1:fa:40:ef:3a:d9:0e:9d:88:5e:9f:38:93:9d:b2:a2:33:
        1c:22:e4:06:9b:5c:98:dc:17:74:18:8c:aa:f1:c8:a2:19:64:
        b4:fb:a9:c5:a9:96:29:35:4a:d3:46:61:61:8e:08:09:a7:a3:
        de:d3:f1:7f:8e:cd:7c:4a:d9:ca:51:ba:f4:59:6d:4a:71:f5:
        15:35:23:4d:3c:1d:2c:e0:ba:10:7d:56:1d:a4:fb:a8:7a:69:
        3d:1d:6d:6e:bc:4f:8b:87:1e:4c:4a:17:53:97:f1:6b:8a:5d:
        cf:c6:c8:de:57:f8:52:06:00:9f:a7:97:c6:00:86:5d:8b:c3:
        e2:5b:6a:10:db:48:b4:b6:78:5a:2e:49:76:bf:2c:5a:e1:02:
        83:5b:dd:25:65:c7:f5:ce:1a:50:cb:88:f3:a9:bf:d2
-----BEGIN CERTIFICATE-----
MIIGFzCCAf+gAwIBAgICAX8wDQYJKoZIhvcNAQEFBQAwWTELMAkGA1UEBhMCVUcx
DzANBgNVBAcTBlRyb3BpYzEPMA0GA1UEChMGVXRvcGlhMRMwEQYDVQQLEwpSZWxh
eGF0aW9uMRMwEQYDVQQDEwp0aGUgYmlnIENBMB4XDTEyMDIwOTE4NDgwN1oXDTI1
MTAxODE4NDgwN1owYTELMAkGA1UEBhMCVUcxDzANBgNVBAcTBlRyb3BpYzEPMA0G
A1UEChMGVXRvcGlhMRMwEQYDVQQLEwpSZWxheGF0aW9uMRswGQYDVQQDExJiaWcg
Y2xpZW50IHJldm9rZWQwgZ8wDQYJKoZIhvcNAQEBBQADgY0AMIGJAoGBALrV6KuO
eWUtZGWehe/aNNBT++nk+thZCiv9MEbzmEPnu2zTo8BK+CJw3dmGEUJg4dlkqpB6
5k/rVFK/OOQ+QUd5nlrLwNWpleBVnrUgfs8eVKu2VG5SPernbHuaqqoPJBDTLDd7
piNzwUNdJkCThthGoAT1JUee8ZXp/lH5SGYJAgMBAAGjZTBjMAkGA1UdEwQCMAAw
DgYDVR0PAQH/BAQDAgXgMBEGCWCGSAGG+EIBAQQEAwIFoDAzBglghkgBhvhCAQ0E
JhYkT3BlblNTTCBHZW5lcmF0ZWQgQ2xpZW50IENlcnRpZmljYXRlMA0GCSqGSIb3
DQEBBQUAA4IEAQDe/Y9NSlsJFWvYcXVups01yVd8ps4h0TWqWzLHTW7c6p/O4yA9
xXvproW0sm00dk3Vs2Jr+dSpVlqZlgripZEQZKXSAWSCHE7iD0JrSCWI3f1cS1IG
Dsk2sH7B3CDfdyr5KlD1DtetaJZPXGL0BM3TLm2aH1FhsWl28HCcwIgou6HGHKUT
PNFFGyG4L7j6EF5PPw6ChAdPgk3Pa8gjpJCQewxt1A62OT035H4jc7u2sIuyHYN6
9uc1uypWilxTCnPnISw8LlgJKqsuvzKcgoniCJz85Uqdvj5I86YkgtUSmTc4HcDT
yfFf0revdz5Y6VDS3LGDVPwl6vBaGsBBJrR76LWnkZmBGwdwa4/TqSz6qqHEieGO
eoe9dQ7CcYwRM7HIoh+JB1M+1nnZYadsDmkPTs4gmRnYiwEmREkhtRXnkD9uS02C
iY6uouy2v3txAktocB9TQYCeiyEdmhd0TE2Nu7JzsHwMdbPB3fEL4S/gMhNedKMi
rLFqIN0NpXqAyRKk/djm7YzvVzKivS8aaGZgywghzbxmw7Takw8Xm/Npgw6u0w4G
yiDKlbBOJB7WVTJjkstpOF7WE0+WRr0YuJ89xuSwjaiGHJ8PVmuo+A3IJWOrxObB
lWA5MGOJq3x4oMkO1nWCXnnsXYRrJtXlVphIe4Hzwe3OyKSJgpCSqU6Y6hH4SILk
GR6s0/FQOk4XVtDXKrDHka2lCR53Prlzt+VR8wrWWLFvWzdGD5A+cWVnRK0+YMyi
vFfhYDngDFq226NGp/nNjnwpVB0JWwDZYfez8gyFE3b7i4/1dDhdnE5TrR3fWuw0
sgEu9ao7FsgTN3bFu8R/L9TMxZrUi4IaAbx93S+cAtFD/K6xWHvLjKrmFTab9NwL
zHZOwz4hb2X58JtpdY2oT9qLtwab3JQ5LTIhHnT+ckLd30lgW8zEUl9LdiqS24PO
+e9IVoJ1zaPcaWUHdX/OL1fPp7gvTQRfV4azWsEOVc+Z8v5AVhMuCLCyYgl329iM
pUbHIuA7cQG7vP3eOPyfsSiNGoUeE3D8MBxPEvY1SK5sA+S/Yu7CygIj59E2suQK
XTgLghxRvNJ32UW+mlomMgNyDpiO1nSrpOaKTHJ2JGb06ro/hsSdIcIDhiqHFEcU
XP6kOcJUiLNH+biK8fpA7zrZDp2IXp84k52yojMcIuQGm1yY3Bd0GIyq8ciiGWS0
+6nFqZYpNUrTRmFhjggJp6Pe0/F/js18StnKUbr0WW1KcfUVNSNNPB0s4LoQfVYd
pPuoemk9HW1uvE+Lhx5MShdTl/Fril3PxsjeV/hSBgCfp5fGAIZdi8PiW2oQ20i0
tnhaLkl2vyxa4QKDW90lZcf1zhpQy4jzqb/S
-----END CERTIFICATE-----
