Certificate:
    Data:
        Version: 3 (0x2)
        Serial Number: 376 (0x178)
        Signature Algorithm: sha224WithRSAEncryption
        Issuer: C=UG, L=Tropic, O=Utopia, OU=Relaxation, CN=the fake CA
        Validity
            Not Before: Feb  9 18:47:51 2012 GMT
            Not After : Oct 18 18:47:51 2025 GMT
        Subject: C=UG, L=Tropic, O=Utopia, OU=Relaxation, CN=fake client with sha224 hash
        Subject Public Key Info:
            Public Key Algorithm: rsaEncryption
                Public-Key: (1024 bit)
                Modulus:
                    00:a8:04:c8:90:29:2d:2f:8f:99:99:75:19:f9:c2:
                    cc:5d:76:31:ad:e9:6b:89:30:ac:cc:3e:a7:96:b8:
                    2a:93:71:6a:0d:fe:8f:83:44:bf:ca:67:10:ba:87:
                    54:f9:68:48:07:a0:82:8b:db:d1:3f:b2:71:b0:a1:
                    6b:5a:60:9e:74:8c:c0:cc:67:a2:c3:80:94:d3:83:
                    76:bc:27:94:88:3d:24:fb:7a:87:c2:c2:73:f0:b4:
                    e3:ed:15:f0:9b:07:11:4c:4c:fa:89:ef:68:0e:9c:
                    d3:21:e5:61:d8:38:56:51:30:10:4b:d6:fe:6b:03:
                    d3:1b:d7:86:7a:78:a5:4f:55
                Exponent: 65537 (0x10001)
        X509v3 extensions:
            X509v3 Basic Constraints: 
                CA:FALSE
            X509v3 Key Usage: critical
                Digital Signature, Non Repudiation, Key Encipherment
            Netscape Cert Type: 
                SSL Client, S/MIME
            Netscape Comment: 
                OpenSSL Generated Client Certificate
    Signature Algorithm: sha224WithRSAEncryption
        73:91:15:a5:03:9b:55:9d:2e:ff:b0:52:e1:57:7a:97:4c:cb:
        56:f7:d2:0f:b5:1a:3b:53:88:cc:48:98:71:d3:4a:31:f0:3c:
        1a:e2:7e:a6:a3:e3:e2:45:f9:f7:a1:6f:d2:33:61:3d:f9:54:
        cf:af:a7:f7:55:d2:c7:c0:c5:29:01:d6:5a:16:31:c6:e5:e7:
        29:4f:39:5e:bf:b8:80:08:c6:3d:bb:af:07:a8:dc:c6:ed:c3:
        d9:dc:7c:73:89:0c:47:42:3b:60:fe:a7:3e:36:a0:b2:4e:6b:
        b1:94:2f:64:e2:4a:9d:02:fa:cd:85:98:24:77:97:35:c4:5c:
        31:89
-----BEGIN CERTIFICATE-----
MIICoTCCAgqgAwIBAgICAXgwDQYJKoZIhvcNAQEOBQAwWjELMAkGA1UEBhMCVUcx
DzANBgNVBAcTBlRyb3BpYzEPMA0GA1UEChMGVXRvcGlhMRMwEQYDVQQLEwpSZWxh
eGF0aW9uMRQwEgYDVQQDEwt0aGUgZmFrZSBDQTAeFw0xMjAyMDkxODQ3NTFaFw0y
NTEwMTgxODQ3NTFaMGsxCzAJBgNVBAYTAlVHMQ8wDQYDVQQHEwZUcm9waWMxDzAN
BgNVBAoTBlV0b3BpYTETMBEGA1UECxMKUmVsYXhhdGlvbjElMCMGA1UEAxMcZmFr
ZSBjbGllbnQgd2l0aCBzaGEyMjQgaGFzaDCBnzANBgkqhkiG9w0BAQEFAAOBjQAw
gYkCgYEAqATIkCktL4+ZmXUZ+cLMXXYxrelriTCszD6nlrgqk3FqDf6Pg0S/ymcQ
uodU+WhIB6CCi9vRP7JxsKFrWmCedIzAzGeiw4CU04N2vCeUiD0k+3qHwsJz8LTj
7RXwmwcRTEz6ie9oDpzTIeVh2DhWUTAQS9b+awPTG9eGenilT1UCAwEAAaNlMGMw
CQYDVR0TBAIwADAOBgNVHQ8BAf8EBAMCBeAwEQYJYIZIAYb4QgEBBAQDAgWgMDMG
CWCGSAGG+EIBDQQmFiRPcGVuU1NMIEdlbmVyYXRlZCBDbGllbnQgQ2VydGlmaWNh
dGUwDQYJKoZIhvcNAQEOBQADgYEAc5EVpQObVZ0u/7BS4Vd6l0zLVvfSD7UaO1OI
zEiYcdNKMfA8GuJ+pqPj4kX596Fv0jNhPflUz6+n91XSx8DFKQHWWhYxxuXnKU85
Xr+4gAjGPbuvB6jcxu3D2dx8c4kMR0I7YP6nPjagsk5rsZQvZOJKnQL6zYWYJHeX
NcRcMYk=
-----END CERTIFICATE-----
