Certificate:
    Data:
        Version: 3 (0x2)
        Serial Number: 378 (0x17a)
        Signature Algorithm: sha384WithRSAEncryption
        Issuer: C=UG, L=Tropic, O=Utopia, OU=Relaxation, CN=the fake CA
        Validity
            Not Before: Feb  9 18:47:52 2012 GMT
            Not After : Oct 18 18:47:52 2025 GMT
        Subject: C=UG, L=Tropic, O=Utopia, OU=Relaxation, CN=fake client with sha384 hash
        Subject Public Key Info:
            Public Key Algorithm: rsaEncryption
                Public-Key: (1024 bit)
                Modulus:
                    00:d2:57:18:12:3d:05:5e:ad:a3:df:f1:2f:b4:e6:
                    f1:4b:67:e6:ce:d6:d4:93:9f:2a:f1:ca:6e:b0:a2:
                    08:82:6a:00:18:e8:fb:16:00:85:a5:b9:db:19:13:
                    b2:7d:2b:70:a8:40:22:b1:46:ef:29:14:35:e2:d9:
                    e2:12:0b:f2:ba:ec:5e:a4:5a:83:19:9e:ed:87:d1:
                    b8:73:36:67:c2:c7:28:5e:78:9e:9c:b0:1a:5e:d8:
                    a8:9b:1f:a9:35:24:36:2e:96:5d:be:92:dd:15:c7:
                    76:84:3a:d7:e9:2d:42:c3:d9:68:4c:64:aa:94:b4:
                    e3:0f:57:65:44:07:7f:75:5b
                Exponent: 65537 (0x10001)
        X509v3 extensions:
            X509v3 Basic Constraints: 
                CA:FALSE
            X509v3 Key Usage: critical
                Digital Signature, Non Repudiation, Key Encipherment
            Netscape Cert Type: 
                SSL Client, S/MIME
            Netscape Comment: 
                OpenSSL Generated Client Certificate
    Signature Algorithm: sha384WithRSAEncryption
        0e:4c:cc:61:3a:78:6a:d1:94:e2:11:7a:c5:07:36:3b:eb:71:
        16:93:b8:3a:40:7e:bb:e4:07:ba:f5:35:25:20:21:10:66:81:
        77:33:5f:5f:a2:3c:ca:66:3c:bf:bf:6e:96:7f:d6:43:a4:f6:
        e2:e8:52:43:42:6d:3a:cf:af:8e:bb:93:7f:69:00:d4:fe:80:
        41:8d:ac:05:47:9d:35:7f:97:ff:95:9e:1d:8f:cf:ef:ec:b2:
        ed:d3:70:a1:9b:b5:87:67:ec:f1:46:82:0b:9c:d5:74:8a:9a:
        65:8f:58:bd:3a:8a:02:d1:4c:d5:92:77:d3:3f:3d:fe:b6:52:
        f0:4a
-----BEGIN CERTIFICATE-----
MIICoTCCAgqgAwIBAgICAXowDQYJKoZIhvcNAQEMBQAwWjELMAkGA1UEBhMCVUcx
DzANBgNVBAcTBlRyb3BpYzEPMA0GA1UEChMGVXRvcGlhMRMwEQYDVQQLEwpSZWxh
eGF0aW9uMRQwEgYDVQQDEwt0aGUgZmFrZSBDQTAeFw0xMjAyMDkxODQ3NTJaFw0y
NTEwMTgxODQ3NTJaMGsxCzAJBgNVBAYTAlVHMQ8wDQYDVQQHEwZUcm9waWMxDzAN
BgNVBAoTBlV0b3BpYTETMBEGA1UECxMKUmVsYXhhdGlvbjElMCMGA1UEAxMcZmFr
ZSBjbGllbnQgd2l0aCBzaGEzODQgaGFzaDCBnzANBgkqhkiG9w0BAQEFAAOBjQAw
gYkCgYEA0lcYEj0FXq2j3/EvtObxS2fmztbUk58q8cpusKIIgmoAGOj7FgCFpbnb
GROyfStwqEAisUbvKRQ14tniEgvyuuxepFqDGZ7th9G4czZnwscoXnienLAaXtio
mx+pNSQ2LpZdvpLdFcd2hDrX6S1Cw9loTGSqlLTjD1dlRAd/dVsCAwEAAaNlMGMw
CQYDVR0TBAIwADAOBgNVHQ8BAf8EBAMCBeAwEQYJYIZIAYb4QgEBBAQDAgWgMDMG
CWCGSAGG+EIBDQQmFiRPcGVuU1NMIEdlbmVyYXRlZCBDbGllbnQgQ2VydGlmaWNh
dGUwDQYJKoZIhvcNAQEMBQADgYEADkzMYTp4atGU4hF6xQc2O+txFpO4OkB+u+QH
uvU1JSAhEGaBdzNfX6I8ymY8v79uln/WQ6T24uhSQ0JtOs+vjruTf2kA1P6AQY2s
BUedNX+X/5WeHY/P7+yy7dNwoZu1h2fs8UaCC5zVdIqaZY9YvTqKAtFM1ZJ30z89
/rZS8Eo=
-----END CERTIFICATE-----
