Certificate:
    Data:
        Version: 3 (0x2)
        Serial Number: 377 (0x179)
        Signature Algorithm: sha256WithRSAEncryption
        Issuer: C=UG, L=Tropic, O=Utopia, OU=Relaxation, CN=the fake CA
        Validity
            Not Before: Feb  9 18:47:51 2012 GMT
            Not After : Oct 18 18:47:51 2025 GMT
        Subject: C=UG, L=Tropic, O=Utopia, OU=Relaxation, CN=fake client with sha256 hash
        Subject Public Key Info:
            Public Key Algorithm: rsaEncryption
                Public-Key: (1024 bit)
                Modulus:
                    00:d5:e2:21:21:4e:8a:ab:5a:25:26:50:50:8b:0e:
                    0d:1b:90:32:6f:56:68:0c:d3:47:e0:14:a5:3a:cc:
                    c3:5e:ec:ef:a2:ef:e6:49:5b:b3:3a:ab:f7:08:26:
                    d8:28:86:c8:a1:ab:00:f4:6d:ea:2b:11:6b:4f:df:
                    1b:c5:61:28:ce:6d:9d:5e:99:1f:84:e1:2f:42:17:
                    da:20:ce:e4:6f:44:22:e5:78:77:fb:33:a5:4e:d1:
                    91:fe:3f:a4:03:20:67:a2:c7:74:e3:4c:f1:e5:1d:
                    28:97:31:cb:59:51:e5:c1:92:d2:ce:7f:30:41:14:
                    a0:59:30:20:0f:cb:e7:84:a7
                Exponent: 65537 (0x10001)
        X509v3 extensions:
            X509v3 Basic Constraints: 
                CA:FALSE
            X509v3 Key Usage: critical
                Digital Signature, Non Repudiation, Key Encipherment
            Netscape Cert Type: 
                SSL Client, S/MIME
            Netscape Comment: 
                OpenSSL Generated Client Certificate
    Signature Algorithm: sha256WithRSAEncryption
        82:df:fb:cd:c6:ba:b1:7f:d4:0d:66:0e:d6:19:ff:91:c3:e1:
        b6:6f:7f:e1:83:f6:11:e8:6b:ef:24:96:9c:a2:25:93:78:f8:
        bd:80:36:2a:0d:83:9c:c4:22:b4:23:f5:d5:98:0b:5d:2f:62:
        b8:d6:80:9e:9c:03:dd:a9:c8:09:f4:a9:37:79:73:7b:87:2f:
        b2:de:26:f1:31:82:73:77:e0:36:22:de:6a:15:a1:1b:0a:b6:
        bd:5b:44:8b:43:0a:44:24:b1:ba:a8:ae:d0:01:95:79:39:7c:
        c0:f9:1d:c8:a2:17:74:ac:37:27:60:d3:fc:f9:c8:ac:d5:8a:
        6f:8e
-----BEGIN CERTIFICATE-----
MIICoTCCAgqgAwIBAgICAXkwDQYJKoZIhvcNAQELBQAwWjELMAkGA1UEBhMCVUcx
DzANBgNVBAcTBlRyb3BpYzEPMA0GA1UEChMGVXRvcGlhMRMwEQYDVQQLEwpSZWxh
eGF0aW9uMRQwEgYDVQQDEwt0aGUgZmFrZSBDQTAeFw0xMjAyMDkxODQ3NTFaFw0y
NTEwMTgxODQ3NTFaMGsxCzAJBgNVBAYTAlVHMQ8wDQYDVQQHEwZUcm9waWMxDzAN
BgNVBAoTBlV0b3BpYTETMBEGA1UECxMKUmVsYXhhdGlvbjElMCMGA1UEAxMcZmFr
ZSBjbGllbnQgd2l0aCBzaGEyNTYgaGFzaDCBnzANBgkqhkiG9w0BAQEFAAOBjQAw
gYkCgYEA1eIhIU6Kq1olJlBQiw4NG5Ayb1ZoDNNH4BSlOszDXuzvou/mSVuzOqv3
CCbYKIbIoasA9G3qKxFrT98bxWEozm2dXpkfhOEvQhfaIM7kb0Qi5Xh3+zOlTtGR
/j+kAyBnosd040zx5R0olzHLWVHlwZLSzn8wQRSgWTAgD8vnhKcCAwEAAaNlMGMw
CQYDVR0TBAIwADAOBgNVHQ8BAf8EBAMCBeAwEQYJYIZIAYb4QgEBBAQDAgWgMDMG
CWCGSAGG+EIBDQQmFiRPcGVuU1NMIEdlbmVyYXRlZCBDbGllbnQgQ2VydGlmaWNh
dGUwDQYJKoZIhvcNAQELBQADgYEAgt/7zca6sX/UDWYO1hn/kcPhtm9/4YP2Eehr
7ySWnKIlk3j4vYA2Kg2DnMQitCP11ZgLXS9iuNaAnpwD3anICfSpN3lze4cvst4m
8TGCc3fgNiLeahWhGwq2vVtEi0MKRCSxuqiu0AGVeTl8wPkdyKIXdKw3J2DT/PnI
rNWKb44=
-----END CERTIFICATE-----
