Certificate:
    Data:
        Version: 3 (0x2)
        Serial Number: 375 (0x177)
        Signature Algorithm: md5WithRSAEncryption
        Issuer: C=UG, L=Tropic, O=Utopia, OU=Relaxation, CN=the bad CA
        Validity
            Not Before: Feb  9 18:47:57 2012 GMT
            Not After : Oct 18 18:47:57 2025 GMT
        Subject: C=UG, L=Tropic, O=Utopia, OU=Relaxation, CN=bad client with md5 hash
        Subject Public Key Info:
            Public Key Algorithm: rsaEncryption
                Public-Key: (1024 bit)
                Modulus:
                    00:b1:7c:65:d9:70:f9:d1:21:ed:58:77:9e:67:58:
                    4c:7c:98:7e:f2:2a:96:d8:23:71:fd:81:51:19:3b:
                    69:87:6d:2b:d0:a2:0c:cb:6b:12:9b:fb:23:e5:30:
                    b9:97:d6:30:20:7f:6b:44:6c:c1:4e:2b:01:aa:d1:
                    15:a2:f8:3b:a2:d8:51:e9:ee:df:e7:b8:e7:1b:11:
                    5a:08:47:66:46:bc:3b:07:c6:27:c0:dd:78:48:4c:
                    b6:3d:b7:06:b5:76:2a:10:a4:e8:5e:70:04:27:88:
                    6c:4f:ad:a6:9b:19:b7:17:79:39:8a:76:fb:f9:70:
                    ea:6b:20:04:31:53:ba:27:d1
                Exponent: 65537 (0x10001)
        X509v3 extensions:
            X509v3 Basic Constraints: 
                CA:FALSE
            X509v3 Key Usage: critical
                Digital Signature, Non Repudiation, Key Encipherment
            Netscape Cert Type: 
                SSL Client, S/MIME
            Netscape Comment: 
                OpenSSL Generated Client Certificate
    Signature Algorithm: md5WithRSAEncryption
        80:97:86:e4:8d:49:3a:bf:a5:f6:54:6d:6b:57:f5:4f:31:ed:
        b1:1b:80:cd:c1:df:cc:29:f7:7c:e5:2b:f2:bd:4f:52:24:81:
        5c:47:d4:fa:ec:9f:50:54:10:6e:52:1c:8c:31:d4:f3:89:5b:
        07:6d:28:cb:65:14:80:53:68:3e:76:6b:83:bb:e3:bd:bc:b7:
        24:49:6a:e9:56:40:e1:a3:8d:6a:3f:5c:5e:86:80:ef:ca:b1:
        36:9f:d7:ad:25:6f:05:21:30:cb:b0:53:5c:d9:7d:88:48:5a:
        d7:9d:2e:e7:f4:ed:5f:61:ee:83:98:ec:62:a6:6e:89:21:f1:
        78:e9
-----BEGIN CERTIFICATE-----
MIICnDCCAgWgAwIBAgICAXcwDQYJKoZIhvcNAQEEBQAwWTELMAkGA1UEBhMCVUcx
DzANBgNVBAcTBlRyb3BpYzEPMA0GA1UEChMGVXRvcGlhMRMwEQYDVQQLEwpSZWxh
eGF0aW9uMRMwEQYDVQQDEwp0aGUgYmFkIENBMB4XDTEyMDIwOTE4NDc1N1oXDTI1
MTAxODE4NDc1N1owZzELMAkGA1UEBhMCVUcxDzANBgNVBAcTBlRyb3BpYzEPMA0G
A1UEChMGVXRvcGlhMRMwEQYDVQQLEwpSZWxheGF0aW9uMSEwHwYDVQQDExhiYWQg
Y2xpZW50IHdpdGggbWQ1IGhhc2gwgZ8wDQYJKoZIhvcNAQEBBQADgY0AMIGJAoGB
ALF8Zdlw+dEh7Vh3nmdYTHyYfvIqltgjcf2BURk7aYdtK9CiDMtrEpv7I+UwuZfW
MCB/a0RswU4rAarRFaL4O6LYUenu3+e45xsRWghHZka8OwfGJ8DdeEhMtj23BrV2
KhCk6F5wBCeIbE+tppsZtxd5OYp2+/lw6msgBDFTuifRAgMBAAGjZTBjMAkGA1Ud
EwQCMAAwDgYDVR0PAQH/BAQDAgXgMBEGCWCGSAGG+EIBAQQEAwIFoDAzBglghkgB
hvhCAQ0EJhYkT3BlblNTTCBHZW5lcmF0ZWQgQ2xpZW50IENlcnRpZmljYXRlMA0G
CSqGSIb3DQEBBAUAA4GBAICXhuSNSTq/pfZUbWtX9U8x7bEbgM3B38wp93zlK/K9
T1IkgVxH1Prsn1BUEG5SHIwx1POJWwdtKMtlFIBTaD52a4O74728tyRJaulWQOGj
jWo/XF6GgO/KsTaf160lbwUhMMuwU1zZfYhIWtedLuf07V9h7oOY7GKmbokh8Xjp
-----END CERTIFICATE-----
