Certificate:
    Data:
        Version: 3 (0x2)
        Serial Number: 381 (0x17d)
        Signature Algorithm: sha1WithRSAEncryption
        Issuer: C=UG, L=Tropic, O=Utopia, OU=Relaxation, CN=the bad CA
        Validity
            Not Before: Jan  1 00:00:00 2035 GMT
            Not After : Oct 18 18:47:59 2025 GMT
        Subject: C=UG, L=Tropic, O=Utopia, OU=Relaxation, CN=bad client future
        Subject Public Key Info:
            Public Key Algorithm: rsaEncryption
                Public-Key: (1024 bit)
                Modulus:
                    00:b6:71:aa:13:4e:2e:c8:4a:02:02:4b:bb:04:25:
                    df:78:eb:37:bc:e5:75:52:09:ae:1b:54:fc:86:27:
                    1c:bd:3f:3c:62:11:68:42:b1:64:f8:2c:5b:a5:66:
                    a7:6e:40:6d:90:5a:2e:fd:9d:95:76:2c:a2:55:8b:
                    ac:84:cf:e6:8b:b0:39:63:7b:7e:b2:92:4a:bb:78:
                    5b:da:87:43:33:56:f4:99:9e:36:d6:73:a6:e4:d2:
                    ae:91:c2:2f:6d:9b:2d:a1:47:2f:3d:4c:f8:76:ba:
                    c7:6e:77:cd:9b:25:24:c3:6a:9a:e7:af:84:dc:e6:
                    1e:a0:a6:a3:bf:6c:13:e8:11
                Exponent: 65537 (0x10001)
        X509v3 extensions:
            X509v3 Basic Constraints: 
                CA:FALSE
            X509v3 Key Usage: critical
                Digital Signature, Non Repudiation, Key Encipherment
            Netscape Cert Type: 
                SSL Client, S/MIME
            Netscape Comment: 
                OpenSSL Generated Client Certificate
    Signature Algorithm: sha1WithRSAEncryption
        98:17:16:e5:93:bb:b8:44:c1:78:56:63:d0:4f:a1:fc:40:6e:
        d2:30:09:77:09:25:0a:2c:52:4f:39:36:a8:f8:a4:45:4d:55:
        ca:30:03:ab:5e:9e:e5:39:75:89:6c:e6:35:4d:59:8c:45:9c:
        b5:0e:2e:32:25:0a:62:7b:ad:86:61:b1:43:2e:db:c9:eb:ec:
        f0:ef:49:89:a3:65:75:01:8e:fe:67:d7:46:79:82:1c:18:5e:
        bf:1d:36:21:41:74:14:a6:8a:dc:fa:0b:79:6b:1f:cd:cb:5a:
        1b:45:4f:c1:50:15:55:cb:74:e6:39:57:30:4b:6b:ea:96:39:
        dd:ec
-----BEGIN CERTIFICATE-----
MIIClTCCAf6gAwIBAgICAX0wDQYJKoZIhvcNAQEFBQAwWTELMAkGA1UEBhMCVUcx
DzANBgNVBAcTBlRyb3BpYzEPMA0GA1UEChMGVXRvcGlhMRMwEQYDVQQLEwpSZWxh
eGF0aW9uMRMwEQYDVQQDEwp0aGUgYmFkIENBMB4XDTM1MDEwMTAwMDAwMFoXDTI1
MTAxODE4NDc1OVowYDELMAkGA1UEBhMCVUcxDzANBgNVBAcTBlRyb3BpYzEPMA0G
A1UEChMGVXRvcGlhMRMwEQYDVQQLEwpSZWxheGF0aW9uMRowGAYDVQQDExFiYWQg
Y2xpZW50IGZ1dHVyZTCBnzANBgkqhkiG9w0BAQEFAAOBjQAwgYkCgYEAtnGqE04u
yEoCAku7BCXfeOs3vOV1UgmuG1T8hiccvT88YhFoQrFk+CxbpWanbkBtkFou/Z2V
diyiVYushM/mi7A5Y3t+spJKu3hb2odDM1b0mZ421nOm5NKukcIvbZstoUcvPUz4
drrHbnfNmyUkw2qa56+E3OYeoKajv2wT6BECAwEAAaNlMGMwCQYDVR0TBAIwADAO
BgNVHQ8BAf8EBAMCBeAwEQYJYIZIAYb4QgEBBAQDAgWgMDMGCWCGSAGG+EIBDQQm
FiRPcGVuU1NMIEdlbmVyYXRlZCBDbGllbnQgQ2VydGlmaWNhdGUwDQYJKoZIhvcN
AQEFBQADgYEAmBcW5ZO7uETBeFZj0E+h/EBu0jAJdwklCixSTzk2qPikRU1VyjAD
q16e5Tl1iWzmNU1ZjEWctQ4uMiUKYnuthmGxQy7byevs8O9JiaNldQGO/mfXRnmC
HBhevx02IUF0FKaK3PoLeWsfzctaG0VPwVAVVct05jlXMEtr6pY53ew=
-----END CERTIFICATE-----
