Certificate:
    Data:
        Version: 3 (0x2)
        Serial Number: 379 (0x17b)
        Signature Algorithm: sha512WithRSAEncryption
        Issuer: C=UG, L=Tropic, O=Utopia, OU=Relaxation, CN=the bad CA
        Validity
            Not Before: Feb  9 18:47:59 2012 GMT
            Not After : Oct 18 18:47:59 2025 GMT
        Subject: C=UG, L=Tropic, O=Utopia, OU=Relaxation, CN=bad client with sha512 hash
        Subject Public Key Info:
            Public Key Algorithm: rsaEncryption
                Public-Key: (1024 bit)
                Modulus:
                    00:a6:05:39:81:04:96:9b:c7:b6:8a:1f:4b:7a:63:
                    e1:3a:17:5b:5a:a6:f9:68:e2:fa:cd:d8:1d:70:74:
                    4d:b3:5c:6c:03:5c:cd:00:c0:85:ac:c4:8c:71:59:
                    cb:fc:7c:6f:dd:d1:6b:66:93:79:c9:9c:cc:f6:d8:
                    fa:c5:fd:9a:04:41:5a:bd:97:c2:2b:0e:bf:18:f7:
                    b6:35:9a:7d:3a:36:f4:41:4c:b1:d1:34:0e:59:0d:
                    25:cd:4e:b7:f8:38:ae:ec:eb:99:07:84:cb:69:94:
                    52:37:b6:3a:d5:4d:12:7b:ca:db:ae:d6:c9:0a:6e:
                    30:f9:d6:4a:90:9a:6e:06:a3
                Exponent: 65537 (0x10001)
        X509v3 extensions:
            X509v3 Basic Constraints: 
                CA:FALSE
            X509v3 Key Usage: critical
                Digital Signature, Non Repudiation, Key Encipherment
            Netscape Cert Type: 
                SSL Client, S/MIME
            Netscape Comment: 
                OpenSSL Generated Client Certificate
    Signature Algorithm: sha512WithRSAEncryption
        01:26:77:0f:27:2e:59:51:76:32:01:59:2a:ca:99:ee:00:9c:
        4e:90:71:a5:14:00:ac:5d:3a:54:1a:e5:a6:7b:90:9d:48:b6:
        21:52:0f:62:92:ac:c9:6c:2f:d6:90:41:f4:d7:99:ac:00:bf:
        50:d0:85:1c:42:29:38:03:51:90:d5:14:19:5d:41:b7:de:68:
        8a:9c:0a:ef:8a:4d:04:6d:4e:5c:eb:0f:8a:37:be:17:b9:08:
        77:8b:74:75:b5:38:b4:44:50:8b:49:b2:fd:8a:d7:21:7e:3d:
        e6:30:2e:33:79:0c:8c:d6:4b:6a:01:1a:d7:ac:33:bc:95:a1:
        03:0f
-----BEGIN CERTIFICATE-----
MIICnzCCAgigAwIBAgICAXswDQYJKoZIhvcNAQENBQAwWTELMAkGA1UEBhMCVUcx
DzANBgNVBAcTBlRyb3BpYzEPMA0GA1UEChMGVXRvcGlhMRMwEQYDVQQLEwpSZWxh
eGF0aW9uMRMwEQYDVQQDEwp0aGUgYmFkIENBMB4XDTEyMDIwOTE4NDc1OVoXDTI1
MTAxODE4NDc1OVowajELMAkGA1UEBhMCVUcxDzANBgNVBAcTBlRyb3BpYzEPMA0G
A1UEChMGVXRvcGlhMRMwEQYDVQQLEwpSZWxheGF0aW9uMSQwIgYDVQQDExtiYWQg
Y2xpZW50IHdpdGggc2hhNTEyIGhhc2gwgZ8wDQYJKoZIhvcNAQEBBQADgY0AMIGJ
AoGBAKYFOYEElpvHtoofS3pj4ToXW1qm+Wji+s3YHXB0TbNcbANczQDAhazEjHFZ
y/x8b93Ra2aTecmczPbY+sX9mgRBWr2XwisOvxj3tjWafTo29EFMsdE0DlkNJc1O
t/g4ruzrmQeEy2mUUje2OtVNEnvK267WyQpuMPnWSpCabgajAgMBAAGjZTBjMAkG
A1UdEwQCMAAwDgYDVR0PAQH/BAQDAgXgMBEGCWCGSAGG+EIBAQQEAwIFoDAzBglg
hkgBhvhCAQ0EJhYkT3BlblNTTCBHZW5lcmF0ZWQgQ2xpZW50IENlcnRpZmljYXRl
MA0GCSqGSIb3DQEBDQUAA4GBAAEmdw8nLllRdjIBWSrKme4AnE6QcaUUAKxdOlQa
5aZ7kJ1ItiFSD2KSrMlsL9aQQfTXmawAv1DQhRxCKTgDUZDVFBldQbfeaIqcCu+K
TQRtTlzrD4o3vhe5CHeLdHW1OLREUItJsv2K1yF+PeYwLjN5DIzWS2oBGtesM7yV
oQMP
-----END CERTIFICATE-----
