Certificate:
    Data:
        Version: 3 (0x2)
        Serial Number: 384 (0x180)
        Signature Algorithm: sha1WithRSAEncryption
        Issuer: C=UG, L=Tropic, O=Utopia, OU=Relaxation, CN=the bad CA
        Validity
            Not Before: Feb  9 18:48:00 2012 GMT
            Not After : Oct 18 18:48:00 2025 GMT
        Subject: C=UG, L=Tropic, O=http://slash.slash.edu:7656/testing, OU=Relaxation, CN=bad client slash
        Subject Public Key Info:
            Public Key Algorithm: rsaEncryption
                Public-Key: (1024 bit)
                Modulus:
                    00:b4:f3:da:98:1c:80:a0:b2:fc:36:d5:60:18:63:
                    ed:ae:6d:3e:bf:7d:c1:38:16:56:a1:cb:82:c8:88:
                    e8:88:dd:4a:ae:31:cb:87:7d:9e:a4:fb:13:9b:23:
                    64:4a:db:95:d1:f9:73:ac:34:07:b4:bf:b5:01:bb:
                    18:24:86:ce:c1:9f:94:48:4f:2d:c0:a8:bc:65:8b:
                    f8:f2:b4:31:a3:87:93:dd:46:39:a3:ec:86:34:46:
                    c4:f1:64:f7:3e:0d:94:e3:b6:cd:11:7e:85:a3:ce:
                    ce:11:46:3c:67:bf:fc:a7:b7:ba:90:eb:60:4d:68:
                    f8:df:b9:12:9e:a5:e8:6d:a5
                Exponent: 65537 (0x10001)
        X509v3 extensions:
            X509v3 Basic Constraints: 
                CA:FALSE
            X509v3 Key Usage: critical
                Digital Signature, Non Repudiation, Key Encipherment
            Netscape Cert Type: 
                SSL Client, S/MIME
            Netscape Comment: 
                OpenSSL Generated Client Certificate
    Signature Algorithm: sha1WithRSAEncryption
        8a:38:ee:a3:c3:f2:25:ac:24:be:34:64:6a:b0:1d:b7:76:fd:
        6c:32:21:37:b3:d9:58:c6:9a:80:38:35:62:9b:c1:06:7c:96:
        ce:1b:17:75:07:08:b9:aa:a8:12:5c:64:fe:39:c4:00:33:3e:
        71:1a:5a:00:84:65:d6:38:98:c2:b9:3a:47:7d:50:3e:cb:f0:
        b1:65:9a:2c:d5:e3:ea:2c:01:7e:54:ea:22:d6:b6:2e:4c:75:
        a9:4b:5d:aa:56:d4:0c:26:d8:29:74:3a:4a:c1:d2:c8:22:09:
        6b:92:76:d9:80:3c:84:a1:2a:ae:ff:2d:36:0b:44:54:61:71:
        85:5a
-----BEGIN CERTIFICATE-----
MIICsTCCAhqgAwIBAgICAYAwDQYJKoZIhvcNAQEFBQAwWTELMAkGA1UEBhMCVUcx
DzANBgNVBAcTBlRyb3BpYzEPMA0GA1UEChMGVXRvcGlhMRMwEQYDVQQLEwpSZWxh
eGF0aW9uMRMwEQYDVQQDEwp0aGUgYmFkIENBMB4XDTEyMDIwOTE4NDgwMFoXDTI1
MTAxODE4NDgwMFowfDELMAkGA1UEBhMCVUcxDzANBgNVBAcTBlRyb3BpYzEsMCoG
A1UEChMjaHR0cDovL3NsYXNoLnNsYXNoLmVkdTo3NjU2L3Rlc3RpbmcxEzARBgNV
BAsTClJlbGF4YXRpb24xGTAXBgNVBAMTEGJhZCBjbGllbnQgc2xhc2gwgZ8wDQYJ
KoZIhvcNAQEBBQADgY0AMIGJAoGBALTz2pgcgKCy/DbVYBhj7a5tPr99wTgWVqHL
gsiI6IjdSq4xy4d9nqT7E5sjZErbldH5c6w0B7S/tQG7GCSGzsGflEhPLcCovGWL
+PK0MaOHk91GOaPshjRGxPFk9z4NlOO2zRF+haPOzhFGPGe//Ke3upDrYE1o+N+5
Ep6l6G2lAgMBAAGjZTBjMAkGA1UdEwQCMAAwDgYDVR0PAQH/BAQDAgXgMBEGCWCG
SAGG+EIBAQQEAwIFoDAzBglghkgBhvhCAQ0EJhYkT3BlblNTTCBHZW5lcmF0ZWQg
Q2xpZW50IENlcnRpZmljYXRlMA0GCSqGSIb3DQEBBQUAA4GBAIo47qPD8iWsJL40
ZGqwHbd2/WwyITez2VjGmoA4NWKbwQZ8ls4bF3UHCLmqqBJcZP45xAAzPnEaWgCE
ZdY4mMK5Okd9UD7L8LFlmizV4+osAX5U6iLWti5MdalLXapW1Awm2Cl0OkrB0sgi
CWuSdtmAPIShKq7/LTYLRFRhcYVa
-----END CERTIFICATE-----
