Certificate:
    Data:
        Version: 3 (0x2)
        Serial Number: 374 (0x176)
        Signature Algorithm: sha1WithRSAEncryption
        Issuer: C=UG, L=Tropic, O=Utopia, OU=Relaxation, CN=the bad CA
        Validity
            Not Before: Feb  9 18:47:54 2012 GMT
            Not After : Oct 18 18:47:54 2025 GMT
        Subject: C=UG, L=Tropic, O=Utopia, OU=Relaxation, CN=bad client
        Subject Public Key Info:
            Public Key Algorithm: rsaEncryption
                Public-Key: (1024 bit)
                Modulus:
                    00:b1:6b:3c:da:4e:70:9e:61:17:f2:b7:08:ac:7e:
                    4a:6c:7b:df:31:f5:fd:13:ba:e7:d7:2e:37:7d:52:
                    d1:64:15:b2:f7:e0:12:2c:cb:8e:c7:67:e1:cb:4d:
                    64:b8:45:0c:42:c6:a8:0e:52:4f:b8:c8:70:ae:9e:
                    2f:14:11:b1:da:ec:3e:b2:a2:66:82:e0:4c:b0:be:
                    3e:2e:00:48:37:c8:4e:99:21:3b:f4:44:4c:37:da:
                    4c:eb:be:9c:47:84:b2:08:57:04:b6:e8:0f:6e:fd:
                    04:a8:b4:c5:39:77:39:57:b5:5e:05:57:0f:b1:56:
                    e8:fe:25:dc:5e:e8:70:19:e1
                Exponent: 65537 (0x10001)
        X509v3 extensions:
            X509v3 Basic Constraints: 
                CA:FALSE
            X509v3 Key Usage: critical
                Digital Signature, Non Repudiation, Key Encipherment
            Netscape Cert Type: 
                SSL Client, S/MIME
            Netscape Comment: 
                OpenSSL Generated Client Certificate
    Signature Algorithm: sha1WithRSAEncryption
        07:3a:ae:00:5f:e8:f7:6c:3f:fc:a6:9e:7b:6e:81:2f:be:fc:
        3a:b3:e4:da:55:bb:2d:52:58:fc:66:71:d7:d8:fe:6b:d6:c0:
        a1:37:99:54:5a:1d:20:bb:ba:48:4a:a4:e8:4d:e3:ec:1b:6f:
        81:a1:0a:9f:e0:b7:ab:cf:4f:af:b9:e4:83:ea:03:d1:12:74:
        35:63:6c:88:c1:91:32:c5:28:d9:fe:38:fc:92:4c:86:88:14:
        11:e0:f7:29:49:b4:cf:80:2b:1c:17:81:63:9e:cd:c0:78:cb:
        70:0f:03:aa:51:02:f4:e2:33:12:09:63:58:1e:1b:28:35:1a:
        3d:f7
-----BEGIN CERTIFICATE-----
MIICjjCCAfegAwIBAgICAXYwDQYJKoZIhvcNAQEFBQAwWTELMAkGA1UEBhMCVUcx
DzANBgNVBAcTBlRyb3BpYzEPMA0GA1UEChMGVXRvcGlhMRMwEQYDVQQLEwpSZWxh
eGF0aW9uMRMwEQYDVQQDEwp0aGUgYmFkIENBMB4XDTEyMDIwOTE4NDc1NFoXDTI1
MTAxODE4NDc1NFowWTELMAkGA1UEBhMCVUcxDzANBgNVBAcTBlRyb3BpYzEPMA0G
A1UEChMGVXRvcGlhMRMwEQYDVQQLEwpSZWxheGF0aW9uMRMwEQYDVQQDEwpiYWQg
Y2xpZW50MIGfMA0GCSqGSIb3DQEBAQUAA4GNADCBiQKBgQCxazzaTnCeYRfytwis
fkpse98x9f0TuufXLjd9UtFkFbL34BIsy47HZ+HLTWS4RQxCxqgOUk+4yHCuni8U
EbHa7D6yomaC4Eywvj4uAEg3yE6ZITv0REw32kzrvpxHhLIIVwS26A9u/QSotMU5
dzlXtV4FVw+xVuj+Jdxe6HAZ4QIDAQABo2UwYzAJBgNVHRMEAjAAMA4GA1UdDwEB
/wQEAwIF4DARBglghkgBhvhCAQEEBAMCBaAwMwYJYIZIAYb4QgENBCYWJE9wZW5T
U0wgR2VuZXJhdGVkIENsaWVudCBDZXJ0aWZpY2F0ZTANBgkqhkiG9w0BAQUFAAOB
gQAHOq4AX+j3bD/8pp57boEvvvw6s+TaVbstUlj8ZnHX2P5r1sChN5lUWh0gu7pI
SqToTePsG2+BoQqf4Lerz0+vueSD6gPREnQ1Y2yIwZEyxSjZ/jj8kkyGiBQR4Pcp
SbTPgCscF4Fjns3AeMtwDwOqUQL04jMSCWNYHhsoNRo99w==
-----END CERTIFICATE-----
