Certificate:
    Data:
        Version: 3 (0x2)
        Serial Number: 378 (0x17a)
        Signature Algorithm: sha384WithRSAEncryption
        Issuer: C=UG, L=Tropic, O=Utopia, OU=Relaxation, CN=the bad CA
        Validity
            Not Before: Feb  9 18:47:58 2012 GMT
            Not After : Oct 18 18:47:58 2025 GMT
        Subject: C=UG, L=Tropic, O=Utopia, OU=Relaxation, CN=bad client with sha384 hash
        Subject Public Key Info:
            Public Key Algorithm: rsaEncryption
                Public-Key: (1024 bit)
                Modulus:
                    00:d0:13:08:bf:42:e6:e9:1b:eb:0e:15:62:57:fb:
                    8b:ae:7d:20:68:e3:f0:a7:2d:d4:93:1a:b9:47:d4:
                    96:cd:1e:72:41:30:06:b3:51:5f:44:70:d7:d5:95:
                    2e:4f:92:aa:2b:09:c3:b5:93:09:72:3c:81:c9:de:
                    8b:e8:a8:38:c8:1c:80:f4:cb:2a:51:a1:9b:e3:9f:
                    d3:a3:1e:0d:b7:c1:2b:6a:30:99:cf:bc:a3:05:e4:
                    ac:9f:6f:81:13:e4:ad:b8:49:16:90:7f:a4:55:0f:
                    8f:bf:82:fb:37:6c:6b:57:ec:d0:11:ca:c0:b6:b4:
                    fa:5d:26:83:c2:13:cc:28:99
                Exponent: 65537 (0x10001)
        X509v3 extensions:
            X509v3 Basic Constraints: 
                CA:FALSE
            X509v3 Key Usage: critical
                Digital Signature, Non Repudiation, Key Encipherment
            Netscape Cert Type: 
                SSL Client, S/MIME
            Netscape Comment: 
                OpenSSL Generated Client Certificate
    Signature Algorithm: sha384WithRSAEncryption
        3c:42:60:78:5d:9e:f5:47:3a:2c:94:5a:60:23:ed:39:9d:4e:
        81:20:3b:ce:81:89:f3:a3:45:0a:39:8b:40:4e:30:53:81:5e:
        f5:02:a6:70:35:dd:9e:d1:e4:b6:cf:7a:db:fe:7a:66:9c:75:
        7f:89:18:b3:bb:fd:27:7d:1a:18:32:d1:5c:0c:d0:53:8b:53:
        c2:01:1c:b1:8f:03:69:5a:46:b2:d8:fd:1c:ff:38:59:99:3c:
        32:d4:03:14:54:70:16:43:51:df:3f:db:87:e8:b1:a3:09:5d:
        96:12:8c:d6:e3:c9:80:69:95:60:bb:e1:7c:df:61:b8:55:38:
        c4:01
-----BEGIN CERTIFICATE-----
MIICnzCCAgigAwIBAgICAXowDQYJKoZIhvcNAQEMBQAwWTELMAkGA1UEBhMCVUcx
DzANBgNVBAcTBlRyb3BpYzEPMA0GA1UEChMGVXRvcGlhMRMwEQYDVQQLEwpSZWxh
eGF0aW9uMRMwEQYDVQQDEwp0aGUgYmFkIENBMB4XDTEyMDIwOTE4NDc1OFoXDTI1
MTAxODE4NDc1OFowajELMAkGA1UEBhMCVUcxDzANBgNVBAcTBlRyb3BpYzEPMA0G
A1UEChMGVXRvcGlhMRMwEQYDVQQLEwpSZWxheGF0aW9uMSQwIgYDVQQDExtiYWQg
Y2xpZW50IHdpdGggc2hhMzg0IGhhc2gwgZ8wDQYJKoZIhvcNAQEBBQADgY0AMIGJ
AoGBANATCL9C5ukb6w4VYlf7i659IGjj8Kct1JMauUfUls0eckEwBrNRX0Rw19WV
Lk+SqisJw7WTCXI8gcnei+ioOMgcgPTLKlGhm+Of06MeDbfBK2owmc+8owXkrJ9v
gRPkrbhJFpB/pFUPj7+C+zdsa1fs0BHKwLa0+l0mg8ITzCiZAgMBAAGjZTBjMAkG
A1UdEwQCMAAwDgYDVR0PAQH/BAQDAgXgMBEGCWCGSAGG+EIBAQQEAwIFoDAzBglg
hkgBhvhCAQ0EJhYkT3BlblNTTCBHZW5lcmF0ZWQgQ2xpZW50IENlcnRpZmljYXRl
MA0GCSqGSIb3DQEBDAUAA4GBADxCYHhdnvVHOiyUWmAj7TmdToEgO86BifOjRQo5
i0BOMFOBXvUCpnA13Z7R5LbPetv+emacdX+JGLO7/Sd9Ghgy0VwM0FOLU8IBHLGP
A2laRrLY/Rz/OFmZPDLUAxRUcBZDUd8/24fosaMJXZYSjNbjyYBplWC74XzfYbhV
OMQB
-----END CERTIFICATE-----
