Certificate:
    Data:
        Version: 3 (0x2)
        Serial Number: 374 (0x176)
        Signature Algorithm: sha1WithRSAEncryption
        Issuer: C=UG, L=Tropic, O=Utopia, OU=Relaxation, CN=the expired CA
        Validity
            Not Before: Feb  9 18:48:08 2012 GMT
            Not After : Oct 18 18:48:08 2025 GMT
        Subject: C=UG, L=Tropic, O=Utopia, OU=Relaxation, CN=expired client
        Subject Public Key Info:
            Public Key Algorithm: rsaEncryption
                Public-Key: (1024 bit)
                Modulus:
                    00:a3:f0:d0:dd:c7:dc:f1:41:1f:33:91:f9:3d:ec:
                    dd:4f:11:eb:64:11:e2:58:ae:88:0f:2f:02:0a:9f:
                    7f:1c:eb:c6:53:31:3c:4a:ff:fc:78:60:92:e7:9f:
                    89:55:80:86:13:c3:39:13:e0:f8:bc:7b:71:56:a3:
                    ea:c3:bd:07:f6:cb:d2:57:d2:b4:9b:01:4c:e4:37:
                    71:26:ab:e6:ed:ea:56:6a:cc:2e:fe:33:12:13:5f:
                    5c:79:66:75:92:e8:c4:ce:68:e4:32:2a:c6:40:f1:
                    87:e2:b2:bc:a4:e6:0f:ab:c5:ef:d6:f4:cf:9e:89:
                    06:77:58:45:ed:01:d0:4b:2f
                Exponent: 65537 (0x10001)
        X509v3 extensions:
            X509v3 Basic Constraints: 
                CA:FALSE
            X509v3 Key Usage: critical
                Digital Signature, Non Repudiation, Key Encipherment
            Netscape Cert Type: 
                SSL Client, S/MIME
            Netscape Comment: 
                OpenSSL Generated Client Certificate
    Signature Algorithm: sha1WithRSAEncryption
        0a:9e:68:73:a7:1b:c4:23:5d:af:b1:61:60:7f:bc:77:3a:a6:
        42:2e:59:c4:46:f7:43:22:8f:19:45:c3:98:65:7f:3f:af:eb:
        e5:c0:31:15:f2:04:8e:fb:6e:0e:53:ea:1d:3c:7e:2f:af:9a:
        75:56:b9:f4:2d:34:f7:05:4c:d7:c2:45:87:ec:40:8d:56:f0:
        f2:4b:61:a8:6d:26:d8:97:e8:e8:a4:8e:53:73:b4:58:58:d4:
        4d:db:73:fb:e6:7b:7d:a5:3b:fd:2e:2d:3c:7b:00:72:f8:17:
        86:c2:4c:bf:8c:05:b8:f8:61:ec:f4:2d:cf:e1:ed:e7:13:db:
        05:e4
-----BEGIN CERTIFICATE-----
MIICljCCAf+gAwIBAgICAXYwDQYJKoZIhvcNAQEFBQAwXTELMAkGA1UEBhMCVUcx
DzANBgNVBAcTBlRyb3BpYzEPMA0GA1UEChMGVXRvcGlhMRMwEQYDVQQLEwpSZWxh
eGF0aW9uMRcwFQYDVQQDEw50aGUgZXhwaXJlZCBDQTAeFw0xMjAyMDkxODQ4MDha
Fw0yNTEwMTgxODQ4MDhaMF0xCzAJBgNVBAYTAlVHMQ8wDQYDVQQHEwZUcm9waWMx
DzANBgNVBAoTBlV0b3BpYTETMBEGA1UECxMKUmVsYXhhdGlvbjEXMBUGA1UEAxMO
ZXhwaXJlZCBjbGllbnQwgZ8wDQYJKoZIhvcNAQEBBQADgY0AMIGJAoGBAKPw0N3H
3PFBHzOR+T3s3U8R62QR4liuiA8vAgqffxzrxlMxPEr//HhgkuefiVWAhhPDORPg
+Lx7cVaj6sO9B/bL0lfStJsBTOQ3cSar5u3qVmrMLv4zEhNfXHlmdZLoxM5o5DIq
xkDxh+KyvKTmD6vF79b0z56JBndYRe0B0EsvAgMBAAGjZTBjMAkGA1UdEwQCMAAw
DgYDVR0PAQH/BAQDAgXgMBEGCWCGSAGG+EIBAQQEAwIFoDAzBglghkgBhvhCAQ0E
JhYkT3BlblNTTCBHZW5lcmF0ZWQgQ2xpZW50IENlcnRpZmljYXRlMA0GCSqGSIb3
DQEBBQUAA4GBAAqeaHOnG8QjXa+xYWB/vHc6pkIuWcRG90MijxlFw5hlfz+v6+XA
MRXyBI77bg5T6h08fi+vmnVWufQtNPcFTNfCRYfsQI1W8PJLYahtJtiX6OikjlNz
tFhY1E3bc/vme32lO/0uLTx7AHL4F4bCTL+MBbj4Yez0Lc/h7ecT2wXk
-----END CERTIFICATE-----
