Certificate:
    Data:
        Version: 3 (0x2)
        Serial Number: 375 (0x177)
        Signature Algorithm: md5WithRSAEncryption
        Issuer: C=UG, L=Tropic, O=Utopia, OU=Relaxation, CN=the expired CA
        Validity
            Not Before: Feb  9 18:48:10 2012 GMT
            Not After : Oct 18 18:48:10 2025 GMT
        Subject: C=UG, L=Tropic, O=Utopia, OU=Relaxation, CN=expired client with md5 hash
        Subject Public Key Info:
            Public Key Algorithm: rsaEncryption
                Public-Key: (1024 bit)
                Modulus:
                    00:c7:7c:ee:c8:11:f2:c8:24:4e:44:65:1a:3f:bb:
                    00:35:1e:bb:66:54:4d:4c:ac:b8:06:8d:61:f0:b1:
                    8a:44:09:ad:62:50:98:9d:f2:0c:61:d2:1e:d9:43:
                    8e:50:ad:3b:97:19:bd:99:dc:de:2c:46:0b:a2:e0:
                    e8:8c:b8:c2:f1:c4:6e:e5:04:80:d5:52:10:46:ce:
                    20:ce:b9:7e:17:20:a4:2a:b3:43:9e:b1:6a:d0:01:
                    1b:b2:99:fc:86:fc:47:9e:e9:7f:29:26:dc:c6:48:
                    54:2e:64:22:a0:93:03:b1:07:fc:d5:c6:06:13:90:
                    68:53:81:cc:77:0f:2c:99:b9
                Exponent: 65537 (0x10001)
        X509v3 extensions:
            X509v3 Basic Constraints: 
                CA:FALSE
            X509v3 Key Usage: critical
                Digital Signature, Non Repudiation, Key Encipherment
            Netscape Cert Type: 
                SSL Client, S/MIME
            Netscape Comment: 
                OpenSSL Generated Client Certificate
    Signature Algorithm: md5WithRSAEncryption
        3f:3e:94:27:61:bb:fe:ec:09:11:3a:7d:f0:fd:a8:f4:9d:8c:
        f2:00:6f:3a:79:d9:d6:13:f8:88:e0:74:6a:80:23:f5:50:c6:
        d2:cd:d7:6f:a5:cc:3f:0e:c0:86:80:3b:ae:09:9d:52:05:e3:
        fa:17:d7:92:2a:e7:7c:7b:16:a8:cd:c1:b0:54:be:48:66:80:
        9e:1b:ff:80:4f:0f:2c:35:f4:2f:c4:dd:83:78:78:6b:ab:e0:
        68:3a:65:74:e0:8e:f1:8d:dc:6a:0b:68:20:e7:af:6f:8a:a2:
        74:0d:f1:e8:8e:81:d3:2e:fb:fb:30:c5:d5:92:54:85:a7:a2:
        67:73
-----BEGIN CERTIFICATE-----
MIICpDCCAg2gAwIBAgICAXcwDQYJKoZIhvcNAQEEBQAwXTELMAkGA1UEBhMCVUcx
DzANBgNVBAcTBlRyb3BpYzEPMA0GA1UEChMGVXRvcGlhMRMwEQYDVQQLEwpSZWxh
eGF0aW9uMRcwFQYDVQQDEw50aGUgZXhwaXJlZCBDQTAeFw0xMjAyMDkxODQ4MTBa
Fw0yNTEwMTgxODQ4MTBaMGsxCzAJBgNVBAYTAlVHMQ8wDQYDVQQHEwZUcm9waWMx
DzANBgNVBAoTBlV0b3BpYTETMBEGA1UECxMKUmVsYXhhdGlvbjElMCMGA1UEAxMc
ZXhwaXJlZCBjbGllbnQgd2l0aCBtZDUgaGFzaDCBnzANBgkqhkiG9w0BAQEFAAOB
jQAwgYkCgYEAx3zuyBHyyCRORGUaP7sANR67ZlRNTKy4Bo1h8LGKRAmtYlCYnfIM
YdIe2UOOUK07lxm9mdzeLEYLouDojLjC8cRu5QSA1VIQRs4gzrl+FyCkKrNDnrFq
0AEbspn8hvxHnul/KSbcxkhULmQioJMDsQf81cYGE5BoU4HMdw8smbkCAwEAAaNl
MGMwCQYDVR0TBAIwADAOBgNVHQ8BAf8EBAMCBeAwEQYJYIZIAYb4QgEBBAQDAgWg
MDMGCWCGSAGG+EIBDQQmFiRPcGVuU1NMIEdlbmVyYXRlZCBDbGllbnQgQ2VydGlm
aWNhdGUwDQYJKoZIhvcNAQEEBQADgYEAPz6UJ2G7/uwJETp98P2o9J2M8gBvOnnZ
1hP4iOB0aoAj9VDG0s3Xb6XMPw7AhoA7rgmdUgXj+hfXkirnfHsWqM3BsFS+SGaA
nhv/gE8PLDX0L8Tdg3h4a6vgaDpldOCO8Y3cagtoIOevb4qidA3x6I6B0y77+zDF
1ZJUhaeiZ3M=
-----END CERTIFICATE-----
