Certificate:
    Data:
        Version: 3 (0x2)
        Serial Number: 380 (0x17c)
        Signature Algorithm: sha1WithRSAEncryption
        Issuer: C=UG, L=Tropic, O=Utopia, OU=Relaxation, CN=the expired CA
        Validity
            Not Before: Feb  9 18:48:12 2012 GMT
            Not After : Oct 18 18:48:12 2025 GMT
        Subject: C=UG, L=Tropic, O=Utopia, OU=Chilling, CN=expired client with bad DN
        Subject Public Key Info:
            Public Key Algorithm: rsaEncryption
                Public-Key: (1024 bit)
                Modulus:
                    00:d9:4d:a6:7e:96:40:08:58:24:28:ed:5c:4e:88:
                    19:18:d6:6d:ad:a8:0a:c1:2e:a6:ac:fa:45:63:17:
                    d0:1f:40:2b:b4:29:69:8b:38:80:e7:7c:43:16:68:
                    3a:61:32:90:6d:ad:af:10:ee:a3:45:d8:d3:fe:ab:
                    fd:15:ef:91:48:74:dc:18:3b:0d:89:ac:95:3f:8b:
                    2d:5a:63:b0:e0:7a:0d:97:11:b1:1c:db:6c:10:67:
                    c3:84:6e:2a:66:3e:11:51:f3:ab:a4:35:4c:fe:f2:
                    16:9f:72:3c:63:b7:16:1b:70:31:88:cb:71:8f:7e:
                    3a:d8:23:9c:b6:28:bf:6a:05
                Exponent: 65537 (0x10001)
        X509v3 extensions:
            X509v3 Basic Constraints: 
                CA:FALSE
            X509v3 Key Usage: critical
                Digital Signature, Non Repudiation, Key Encipherment
            Netscape Cert Type: 
                SSL Client, S/MIME
            Netscape Comment: 
                OpenSSL Generated Client Certificate
    Signature Algorithm: sha1WithRSAEncryption
        8c:f7:9c:8b:67:25:75:95:a1:da:dc:c5:41:0c:30:13:73:15:
        e6:ff:78:88:36:5e:5f:ab:67:da:97:32:4d:02:31:1d:9d:85:
        83:c6:d2:93:58:f1:3d:00:0b:00:7b:dc:41:e4:00:c6:7d:32:
        a4:87:85:59:d1:be:e7:20:b4:a8:6d:78:d4:27:1d:7d:76:a0:
        1b:f0:48:24:1a:f5:76:ef:12:55:8f:62:9e:ba:77:6b:ea:ab:
        06:79:7b:dc:7a:c4:05:63:d2:f4:06:c9:40:54:37:6e:b2:3e:
        ce:03:3a:f4:0b:db:c0:1c:6c:b9:f7:b3:ca:d9:da:d3:80:20:
        65:d3
-----BEGIN CERTIFICATE-----
MIICoDCCAgmgAwIBAgICAXwwDQYJKoZIhvcNAQEFBQAwXTELMAkGA1UEBhMCVUcx
DzANBgNVBAcTBlRyb3BpYzEPMA0GA1UEChMGVXRvcGlhMRMwEQYDVQQLEwpSZWxh
eGF0aW9uMRcwFQYDVQQDEw50aGUgZXhwaXJlZCBDQTAeFw0xMjAyMDkxODQ4MTJa
Fw0yNTEwMTgxODQ4MTJaMGcxCzAJBgNVBAYTAlVHMQ8wDQYDVQQHEwZUcm9waWMx
DzANBgNVBAoTBlV0b3BpYTERMA8GA1UECxMIQ2hpbGxpbmcxIzAhBgNVBAMTGmV4
cGlyZWQgY2xpZW50IHdpdGggYmFkIEROMIGfMA0GCSqGSIb3DQEBAQUAA4GNADCB
iQKBgQDZTaZ+lkAIWCQo7VxOiBkY1m2tqArBLqas+kVjF9AfQCu0KWmLOIDnfEMW
aDphMpBtra8Q7qNF2NP+q/0V75FIdNwYOw2JrJU/iy1aY7Dgeg2XEbEc22wQZ8OE
bipmPhFR86ukNUz+8hafcjxjtxYbcDGIy3GPfjrYI5y2KL9qBQIDAQABo2UwYzAJ
BgNVHRMEAjAAMA4GA1UdDwEB/wQEAwIF4DARBglghkgBhvhCAQEEBAMCBaAwMwYJ
YIZIAYb4QgENBCYWJE9wZW5TU0wgR2VuZXJhdGVkIENsaWVudCBDZXJ0aWZpY2F0
ZTANBgkqhkiG9w0BAQUFAAOBgQCM95yLZyV1laHa3MVBDDATcxXm/3iINl5fq2fa
lzJNAjEdnYWDxtKTWPE9AAsAe9xB5ADGfTKkh4VZ0b7nILSobXjUJx19dqAb8Egk
GvV27xJVj2Keundr6qsGeXvcesQFY9L0BslAVDdusj7OAzr0C9vAHGy597PK2drT
gCBl0w==
-----END CERTIFICATE-----
