Certificate:
    Data:
        Version: 3 (0x2)
        Serial Number: 377 (0x179)
        Signature Algorithm: sha256WithRSAEncryption
        Issuer: C=UG, L=Tropic, O=Utopia, OU=Relaxation, CN=the expired CA
        Validity
            Not Before: Feb  9 18:48:11 2012 GMT
            Not After : Oct 18 18:48:11 2025 GMT
        Subject: C=UG, L=Tropic, O=Utopia, OU=Relaxation, CN=expired client with sha256 hash
        Subject Public Key Info:
            Public Key Algorithm: rsaEncryption
                Public-Key: (1024 bit)
                Modulus:
                    00:a2:41:71:a8:fc:b7:fd:b0:82:0c:a2:61:e5:20:
                    fe:48:d3:09:b0:fe:91:c7:4b:11:54:6f:04:95:ed:
                    de:2c:92:0e:bd:ee:cb:85:96:a2:a6:a9:1c:43:5c:
                    ba:f5:67:8e:07:14:a3:6c:2f:76:3a:2a:bd:3f:a9:
                    ff:fa:98:8d:67:96:c3:ab:29:6b:35:53:70:b1:6b:
                    bf:28:7f:f1:c7:b6:be:a9:7e:44:4b:2b:a2:76:17:
                    e1:a9:11:30:90:91:f7:ee:90:17:5f:5a:38:1d:f1:
                    48:bc:33:77:71:cd:53:91:e0:65:66:d0:62:6b:94:
                    f3:92:59:d3:c9:1d:0b:9c:a5
                Exponent: 65537 (0x10001)
        X509v3 extensions:
            X509v3 Basic Constraints: 
                CA:FALSE
            X509v3 Key Usage: critical
                Digital Signature, Non Repudiation, Key Encipherment
            Netscape Cert Type: 
                SSL Client, S/MIME
            Netscape Comment: 
                OpenSSL Generated Client Certificate
    Signature Algorithm: sha256WithRSAEncryption
        44:56:a8:13:1c:ec:b0:a5:70:b8:b0:89:9b:8a:7b:9a:a2:24:
        61:c4:59:df:0b:9a:97:67:26:87:32:5a:64:73:50:08:09:d4:
        21:b5:b5:6f:92:21:24:c5:a3:7a:b3:74:19:1e:2c:ab:01:8c:
        9b:fa:e0:c5:e4:b4:50:5b:e9:f9:3f:cf:38:cf:b0:08:ce:27:
        63:07:41:f7:6e:1d:f7:8c:da:0b:e0:2f:34:73:e4:27:01:da:
        b9:e6:30:02:68:34:90:09:4d:46:29:27:94:51:0d:9d:7b:e5:
        f1:83:e9:0d:a9:94:06:36:dc:7e:a2:f9:65:4a:15:74:b7:80:
        f8:82
-----BEGIN CERTIFICATE-----
MIICpzCCAhCgAwIBAgICAXkwDQYJKoZIhvcNAQELBQAwXTELMAkGA1UEBhMCVUcx
DzANBgNVBAcTBlRyb3BpYzEPMA0GA1UEChMGVXRvcGlhMRMwEQYDVQQLEwpSZWxh
eGF0aW9uMRcwFQYDVQQDEw50aGUgZXhwaXJlZCBDQTAeFw0xMjAyMDkxODQ4MTFa
Fw0yNTEwMTgxODQ4MTFaMG4xCzAJBgNVBAYTAlVHMQ8wDQYDVQQHEwZUcm9waWMx
DzANBgNVBAoTBlV0b3BpYTETMBEGA1UECxMKUmVsYXhhdGlvbjEoMCYGA1UEAxMf
ZXhwaXJlZCBjbGllbnQgd2l0aCBzaGEyNTYgaGFzaDCBnzANBgkqhkiG9w0BAQEF
AAOBjQAwgYkCgYEAokFxqPy3/bCCDKJh5SD+SNMJsP6Rx0sRVG8Ele3eLJIOve7L
hZaipqkcQ1y69WeOBxSjbC92Oiq9P6n/+piNZ5bDqylrNVNwsWu/KH/xx7a+qX5E
SyuidhfhqREwkJH37pAXX1o4HfFIvDN3cc1TkeBlZtBia5TzklnTyR0LnKUCAwEA
AaNlMGMwCQYDVR0TBAIwADAOBgNVHQ8BAf8EBAMCBeAwEQYJYIZIAYb4QgEBBAQD
AgWgMDMGCWCGSAGG+EIBDQQmFiRPcGVuU1NMIEdlbmVyYXRlZCBDbGllbnQgQ2Vy
dGlmaWNhdGUwDQYJKoZIhvcNAQELBQADgYEARFaoExzssKVwuLCJm4p7mqIkYcRZ
3wual2cmhzJaZHNQCAnUIbW1b5IhJMWjerN0GR4sqwGMm/rgxeS0UFvp+T/POM+w
CM4nYwdB924d94zaC+AvNHPkJwHaueYwAmg0kAlNRiknlFENnXvl8YPpDamUBjbc
fqL5ZUoVdLeA+II=
-----END CERTIFICATE-----
