Certificate:
    Data:
        Version: 3 (0x2)
        Serial Number: 383 (0x17f)
        Signature Algorithm: sha1WithRSAEncryption
        Issuer: C=UG, L=Tropic, O=Utopia, OU=Relaxation, CN=the expired CA
        Validity
            Not Before: Feb  9 18:48:13 2012 GMT
            Not After : Oct 18 18:48:13 2025 GMT
        Subject: C=UG, L=Tropic, O=Utopia, OU=Relaxation, CN=expired client revoked
        Subject Public Key Info:
            Public Key Algorithm: rsaEncryption
                Public-Key: (1024 bit)
                Modulus:
                    00:e2:30:3d:05:a0:e0:05:3d:95:04:76:62:25:62:
                    9e:a8:7d:3c:d6:45:06:d3:39:3f:14:59:f6:0b:d6:
                    9d:0a:72:b4:a0:5c:7a:04:8c:87:36:06:a0:4a:66:
                    ff:46:b6:d4:c7:69:71:d4:5f:13:fd:32:5d:5c:f2:
                    62:35:e3:00:5c:0e:16:2f:7d:6b:b5:d2:a1:a4:fe:
                    c3:1f:3f:3c:f1:40:5e:21:76:41:d2:77:d2:35:10:
                    00:30:7a:20:a8:f3:dd:4f:22:54:09:62:73:51:81:
                    00:be:e6:b6:f6:2c:86:87:38:7e:c0:89:d0:a4:80:
                    24:bb:47:7c:bb:1b:c2:ff:65
                Exponent: 65537 (0x10001)
        X509v3 extensions:
            X509v3 Basic Constraints: 
                CA:FALSE
            X509v3 Key Usage: critical
                Digital Signature, Non Repudiation, Key Encipherment
            Netscape Cert Type: 
                SSL Client, S/MIME
            Netscape Comment: 
                OpenSSL Generated Client Certificate
    Signature Algorithm: sha1WithRSAEncryption
        58:71:ad:7f:8b:28:d5:fa:ac:83:a5:78:d4:48:c5:10:09:fa:
        e1:f4:15:8a:fd:c2:f2:79:99:52:b9:a0:de:c4:69:d8:2d:6e:
        ff:8b:1a:5a:7e:03:da:3f:fb:85:aa:04:b6:57:b4:7b:92:8d:
        dd:99:38:92:b0:52:72:67:3c:b5:a3:84:ab:e4:ac:28:f8:72:
        b1:c9:52:c8:92:7a:2e:80:e9:5b:84:90:9d:3c:a6:38:76:52:
        25:0f:ce:0e:fe:ad:e8:c0:a8:fc:31:4d:83:80:fe:41:0f:e3:
        2d:ea:4d:1d:d3:2f:4a:e0:28:f0:03:d4:78:ae:92:b8:d5:52:
        97:52
-----BEGIN CERTIFICATE-----
MIICnjCCAgegAwIBAgICAX8wDQYJKoZIhvcNAQEFBQAwXTELMAkGA1UEBhMCVUcx
DzANBgNVBAcTBlRyb3BpYzEPMA0GA1UEChMGVXRvcGlhMRMwEQYDVQQLEwpSZWxh
eGF0aW9uMRcwFQYDVQQDEw50aGUgZXhwaXJlZCBDQTAeFw0xMjAyMDkxODQ4MTNa
Fw0yNTEwMTgxODQ4MTNaMGUxCzAJBgNVBAYTAlVHMQ8wDQYDVQQHEwZUcm9waWMx
DzANBgNVBAoTBlV0b3BpYTETMBEGA1UECxMKUmVsYXhhdGlvbjEfMB0GA1UEAxMW
ZXhwaXJlZCBjbGllbnQgcmV2b2tlZDCBnzANBgkqhkiG9w0BAQEFAAOBjQAwgYkC
gYEA4jA9BaDgBT2VBHZiJWKeqH081kUG0zk/FFn2C9adCnK0oFx6BIyHNgagSmb/
RrbUx2lx1F8T/TJdXPJiNeMAXA4WL31rtdKhpP7DHz888UBeIXZB0nfSNRAAMHog
qPPdTyJUCWJzUYEAvua29iyGhzh+wInQpIAku0d8uxvC/2UCAwEAAaNlMGMwCQYD
VR0TBAIwADAOBgNVHQ8BAf8EBAMCBeAwEQYJYIZIAYb4QgEBBAQDAgWgMDMGCWCG
SAGG+EIBDQQmFiRPcGVuU1NMIEdlbmVyYXRlZCBDbGllbnQgQ2VydGlmaWNhdGUw
DQYJKoZIhvcNAQEFBQADgYEAWHGtf4so1fqsg6V41EjFEAn64fQViv3C8nmZUrmg
3sRp2C1u/4saWn4D2j/7haoEtle0e5KN3Zk4krBScmc8taOEq+SsKPhysclSyJJ6
LoDpW4SQnTymOHZSJQ/ODv6t6MCo/DFNg4D+QQ/jLepNHdMvSuAo8APUeK6SuNVS
l1I=
-----END CERTIFICATE-----
