Certificate:
    Data:
        Version: 3 (0x2)
        Serial Number: 377 (0x179)
        Signature Algorithm: sha256WithRSAEncryption
        Issuer: C=UG, L=Tropic, O=Utopia, OU=Relaxation, CN=the nokeyusage CA
        Validity
            Not Before: Feb  9 18:48:17 2012 GMT
            Not After : Oct 18 18:48:17 2025 GMT
        Subject: C=UG, L=Tropic, O=Utopia, OU=Relaxation, CN=nokeyusage client with sha256 hash
        Subject Public Key Info:
            Public Key Algorithm: rsaEncryption
                Public-Key: (1024 bit)
                Modulus:
                    00:f2:3d:89:a3:6b:ce:b1:7b:33:38:f4:6d:24:7d:
                    e4:5d:11:49:0a:96:2b:de:44:61:a3:6d:11:ca:9f:
                    6a:a8:91:1c:f1:44:1c:87:a0:5b:a1:e7:e6:36:97:
                    aa:a6:8a:f3:b1:b5:4e:bf:9a:ab:5c:0c:9c:d2:73:
                    f0:50:f0:6c:69:3d:fb:e1:07:3d:48:f1:2e:ee:f5:
                    b1:64:f2:b5:9d:96:cd:fb:88:34:08:d9:05:09:4a:
                    87:52:12:2c:ea:21:ed:66:10:69:7c:7d:dd:fa:02:
                    18:77:c9:b3:cf:86:cf:c0:69:5c:c4:1e:32:1e:c5:
                    16:12:0f:3f:b3:fe:9a:b9:0f
                Exponent: 65537 (0x10001)
        X509v3 extensions:
            X509v3 Basic Constraints: 
                CA:FALSE
            X509v3 Key Usage: critical
                Digital Signature, Non Repudiation, Key Encipherment
            Netscape Cert Type: 
                SSL Client, S/MIME
            Netscape Comment: 
                OpenSSL Generated Client Certificate
    Signature Algorithm: sha256WithRSAEncryption
        23:28:44:d3:56:92:e8:80:f8:dc:4a:a8:4a:f4:fe:ab:29:5d:
        79:25:42:69:0e:8e:a5:4e:0d:1a:85:40:7d:71:b7:9a:7c:b6:
        5e:7a:09:eb:a7:8c:4b:5c:21:fa:d7:7a:69:9a:32:4d:45:a4:
        ad:00:32:04:15:6c:c2:74:03:30:83:db:50:b7:c5:8b:ef:fd:
        0b:dd:5e:1d:9d:27:fa:af:48:06:72:9d:9b:c6:16:66:05:cd:
        e7:dd:c1:ef:64:0c:25:3b:0d:a4:7b:96:60:6e:e8:2c:11:7f:
        72:cf:d1:80:9c:0f:fe:0d:a0:fc:cd:b0:64:b3:e0:7f:1e:37:
        b5:93
-----BEGIN CERTIFICATE-----
MIICrTCCAhagAwIBAgICAXkwDQYJKoZIhvcNAQELBQAwYDELMAkGA1UEBhMCVUcx
DzANBgNVBAcTBlRyb3BpYzEPMA0GA1UEChMGVXRvcGlhMRMwEQYDVQQLEwpSZWxh
eGF0aW9uMRowGAYDVQQDExF0aGUgbm9rZXl1c2FnZSBDQTAeFw0xMjAyMDkxODQ4
MTdaFw0yNTEwMTgxODQ4MTdaMHExCzAJBgNVBAYTAlVHMQ8wDQYDVQQHEwZUcm9w
aWMxDzANBgNVBAoTBlV0b3BpYTETMBEGA1UECxMKUmVsYXhhdGlvbjErMCkGA1UE
AxMibm9rZXl1c2FnZSBjbGllbnQgd2l0aCBzaGEyNTYgaGFzaDCBnzANBgkqhkiG
9w0BAQEFAAOBjQAwgYkCgYEA8j2Jo2vOsXszOPRtJH3kXRFJCpYr3kRho20Ryp9q
qJEc8UQch6BboefmNpeqporzsbVOv5qrXAyc0nPwUPBsaT374Qc9SPEu7vWxZPK1
nZbN+4g0CNkFCUqHUhIs6iHtZhBpfH3d+gIYd8mzz4bPwGlcxB4yHsUWEg8/s/6a
uQ8CAwEAAaNlMGMwCQYDVR0TBAIwADAOBgNVHQ8BAf8EBAMCBeAwEQYJYIZIAYb4
QgEBBAQDAgWgMDMGCWCGSAGG+EIBDQQmFiRPcGVuU1NMIEdlbmVyYXRlZCBDbGll
bnQgQ2VydGlmaWNhdGUwDQYJKoZIhvcNAQELBQADgYEAIyhE01aS6ID43EqoSvT+
qyldeSVCaQ6OpU4NGoVAfXG3mny2XnoJ66eMS1wh+td6aZoyTUWkrQAyBBVswnQD
MIPbULfFi+/9C91eHZ0n+q9IBnKdm8YWZgXN593B72QMJTsNpHuWYG7oLBF/cs/R
gJwP/g2g/M2wZLPgfx43tZM=
-----END CERTIFICATE-----
