Certificate:
    Data:
        Version: 3 (0x2)
        Serial Number: 380 (0x17c)
        Signature Algorithm: sha1WithRSAEncryption
        Issuer: C=UG, L=Tropic, O=Utopia, OU=Relaxation, CN=the nokeyusage CA
        Validity
            Not Before: Feb  9 18:48:18 2012 GMT
            Not After : Oct 18 18:48:18 2025 GMT
        Subject: C=UG, L=Tropic, O=Utopia, OU=Chilling, CN=nokeyusage client with bad DN
        Subject Public Key Info:
            Public Key Algorithm: rsaEncryption
                Public-Key: (1024 bit)
                Modulus:
                    00:e5:8e:28:9d:9a:2f:0a:81:9a:bd:33:63:21:d7:
                    4c:5f:fb:0a:4b:85:5c:01:bc:99:d3:e9:46:22:9c:
                    79:8b:93:e6:5b:2c:76:1e:40:91:dd:d5:20:a7:4b:
                    9d:19:ff:32:aa:c4:ca:ef:85:cc:f5:32:f4:53:1d:
                    4b:70:5d:fa:eb:dc:51:f4:1b:52:87:78:db:4a:f8:
                    8d:5d:bb:d3:b5:32:c1:08:af:ee:ef:30:8e:18:b1:
                    70:37:8e:f3:44:e8:60:87:39:b5:65:8b:e6:7e:c5:
                    94:aa:4e:39:e4:c2:2a:09:2e:80:85:bb:b2:8a:c1:
                    61:0d:ca:e4:57:51:e7:08:15
                Exponent: 65537 (0x10001)
        X509v3 extensions:
            X509v3 Basic Constraints: 
                CA:FALSE
            X509v3 Key Usage: critical
                Digital Signature, Non Repudiation, Key Encipherment
            Netscape Cert Type: 
                SSL Client, S/MIME
            Netscape Comment: 
                OpenSSL Generated Client Certificate
    Signature Algorithm: sha1WithRSAEncryption
        3d:3c:50:e9:9a:98:03:96:bf:5e:b3:a2:f0:ec:32:23:3d:c6:
        c6:d5:90:a8:75:6a:ec:8b:5f:38:ba:f5:a1:c2:10:cf:ee:b3:
        a0:e8:29:1c:1a:71:92:95:e5:4d:be:23:30:4f:39:4e:f3:5b:
        34:a8:65:7e:46:64:e6:f6:cb:12:b5:df:4d:94:86:bd:e2:26:
        40:84:1d:2c:2e:e7:6f:23:3e:4e:ad:d9:05:c2:98:e1:1e:72:
        4c:30:73:2b:3e:d1:94:3a:c8:85:d1:89:c5:21:43:63:59:a0:
        f8:f8:f5:8d:d7:97:36:5a:26:21:f2:e7:d0:ed:74:5f:a5:5e:
        34:56
-----BEGIN CERTIFICATE-----
MIICpjCCAg+gAwIBAgICAXwwDQYJKoZIhvcNAQEFBQAwYDELMAkGA1UEBhMCVUcx
DzANBgNVBAcTBlRyb3BpYzEPMA0GA1UEChMGVXRvcGlhMRMwEQYDVQQLEwpSZWxh
eGF0aW9uMRowGAYDVQQDExF0aGUgbm9rZXl1c2FnZSBDQTAeFw0xMjAyMDkxODQ4
MThaFw0yNTEwMTgxODQ4MThaMGoxCzAJBgNVBAYTAlVHMQ8wDQYDVQQHEwZUcm9w
aWMxDzANBgNVBAoTBlV0b3BpYTERMA8GA1UECxMIQ2hpbGxpbmcxJjAkBgNVBAMT
HW5va2V5dXNhZ2UgY2xpZW50IHdpdGggYmFkIEROMIGfMA0GCSqGSIb3DQEBAQUA
A4GNADCBiQKBgQDljiidmi8KgZq9M2Mh10xf+wpLhVwBvJnT6UYinHmLk+ZbLHYe
QJHd1SCnS50Z/zKqxMrvhcz1MvRTHUtwXfrr3FH0G1KHeNtK+I1du9O1MsEIr+7v
MI4YsXA3jvNE6GCHObVli+Z+xZSqTjnkwioJLoCFu7KKwWENyuRXUecIFQIDAQAB
o2UwYzAJBgNVHRMEAjAAMA4GA1UdDwEB/wQEAwIF4DARBglghkgBhvhCAQEEBAMC
BaAwMwYJYIZIAYb4QgENBCYWJE9wZW5TU0wgR2VuZXJhdGVkIENsaWVudCBDZXJ0
aWZpY2F0ZTANBgkqhkiG9w0BAQUFAAOBgQA9PFDpmpgDlr9es6Lw7DIjPcbG1ZCo
dWrsi184uvWhwhDP7rOg6CkcGnGSleVNviMwTzlO81s0qGV+RmTm9ssStd9NlIa9
4iZAhB0sLudvIz5OrdkFwpjhHnJMMHMrPtGUOsiF0YnFIUNjWaD4+PWN15c2WiYh
8ufQ7XRfpV40Vg==
-----END CERTIFICATE-----
