Certificate:
    Data:
        Version: 3 (0x2)
        Serial Number: 379 (0x17b)
        Signature Algorithm: sha512WithRSAEncryption
        Issuer: C=UG, L=Tropic, O=Utopia, OU=Relaxation, CN=the nokeyusage CA
        Validity
            Not Before: Feb  9 18:48:18 2012 GMT
            Not After : Oct 18 18:48:18 2025 GMT
        Subject: C=UG, L=Tropic, O=Utopia, OU=Relaxation, CN=nokeyusage client with sha512 hash
        Subject Public Key Info:
            Public Key Algorithm: rsaEncryption
                Public-Key: (1024 bit)
                Modulus:
                    00:cb:53:e8:de:90:03:9f:4e:33:9a:b2:bc:c0:96:
                    fe:59:09:01:09:1d:8e:46:fd:fe:52:c1:88:fc:95:
                    cf:8c:69:0e:69:2e:b5:b6:8b:68:62:fe:91:a1:f8:
                    b1:63:3d:69:ee:b5:ef:e8:49:e4:13:88:c2:9f:a9:
                    e3:46:f0:3d:0f:45:39:c7:21:14:95:5a:74:92:cd:
                    1d:72:5b:da:8c:26:21:b0:99:ba:2c:6f:4f:f7:49:
                    03:18:ef:dc:cc:88:65:64:6f:c6:27:53:7d:dd:6c:
                    d1:fa:fa:97:89:a3:6b:07:55:82:64:7d:2c:7b:7b:
                    46:63:8e:76:a7:bb:31:81:43
                Exponent: 65537 (0x10001)
        X509v3 extensions:
            X509v3 Basic Constraints: 
                CA:FALSE
            X509v3 Key Usage: critical
                Digital Signature, Non Repudiation, Key Encipherment
            Netscape Cert Type: 
                SSL Client, S/MIME
            Netscape Comment: 
                OpenSSL Generated Client Certificate
    Signature Algorithm: sha512WithRSAEncryption
        13:86:85:1b:a3:60:7f:ea:fd:23:a8:7a:5e:40:6f:ca:05:dc:
        c9:3d:d5:a1:02:8c:13:c9:90:2c:23:f7:9d:0e:98:8d:17:b9:
        f6:df:0f:10:58:3b:a2:40:81:47:5a:ac:6a:a9:83:24:99:f0:
        07:af:11:fd:e9:f7:90:4f:90:fa:8c:46:f3:45:78:e0:1f:8a:
        82:b5:c6:f4:8c:f0:1c:7b:81:24:d0:bb:30:35:83:c3:86:e5:
        05:2c:14:2b:d5:39:76:1e:92:47:ee:40:0c:2c:56:b8:4b:b0:
        49:30:ca:17:f9:d8:aa:25:98:f3:db:c3:76:d9:fc:a2:4d:7d:
        60:9a
-----BEGIN CERTIFICATE-----
MIICrTCCAhagAwIBAgICAXswDQYJKoZIhvcNAQENBQAwYDELMAkGA1UEBhMCVUcx
DzANBgNVBAcTBlRyb3BpYzEPMA0GA1UEChMGVXRvcGlhMRMwEQYDVQQLEwpSZWxh
eGF0aW9uMRowGAYDVQQDExF0aGUgbm9rZXl1c2FnZSBDQTAeFw0xMjAyMDkxODQ4
MThaFw0yNTEwMTgxODQ4MThaMHExCzAJBgNVBAYTAlVHMQ8wDQYDVQQHEwZUcm9w
aWMxDzANBgNVBAoTBlV0b3BpYTETMBEGA1UECxMKUmVsYXhhdGlvbjErMCkGA1UE
AxMibm9rZXl1c2FnZSBjbGllbnQgd2l0aCBzaGE1MTIgaGFzaDCBnzANBgkqhkiG
9w0BAQEFAAOBjQAwgYkCgYEAy1Po3pADn04zmrK8wJb+WQkBCR2ORv3+UsGI/JXP
jGkOaS61totoYv6RofixYz1p7rXv6EnkE4jCn6njRvA9D0U5xyEUlVp0ks0dclva
jCYhsJm6LG9P90kDGO/czIhlZG/GJ1N93WzR+vqXiaNrB1WCZH0se3tGY452p7sx
gUMCAwEAAaNlMGMwCQYDVR0TBAIwADAOBgNVHQ8BAf8EBAMCBeAwEQYJYIZIAYb4
QgEBBAQDAgWgMDMGCWCGSAGG+EIBDQQmFiRPcGVuU1NMIEdlbmVyYXRlZCBDbGll
bnQgQ2VydGlmaWNhdGUwDQYJKoZIhvcNAQENBQADgYEAE4aFG6Ngf+r9I6h6XkBv
ygXcyT3VoQKME8mQLCP3nQ6YjRe59t8PEFg7okCBR1qsaqmDJJnwB68R/en3kE+Q
+oxG80V44B+KgrXG9IzwHHuBJNC7MDWDw4blBSwUK9U5dh6SR+5ADCxWuEuwSTDK
F/nYqiWY89vDdtn8ok19YJo=
-----END CERTIFICATE-----
