Certificate:
    Data:
        Version: 3 (0x2)
        Serial Number: 376 (0x178)
        Signature Algorithm: sha224WithRSAEncryption
        Issuer: C=UG, L=Tropic, O=Utopia, OU=Relaxation, CN=the nokeyusage CA
        Validity
            Not Before: Feb  9 18:48:17 2012 GMT
            Not After : Oct 18 18:48:17 2025 GMT
        Subject: C=UG, L=Tropic, O=Utopia, OU=Relaxation, CN=nokeyusage client with sha224 hash
        Subject Public Key Info:
            Public Key Algorithm: rsaEncryption
                Public-Key: (1024 bit)
                Modulus:
                    00:be:11:a2:8f:ee:de:3e:3d:51:4e:e2:8a:43:ae:
                    3f:38:a4:3b:5a:c8:dc:b0:a9:b2:f5:91:0c:0e:2b:
                    e1:09:df:75:e0:7c:64:e9:ae:f1:35:f4:11:a3:db:
                    8d:d5:b5:54:3b:c3:89:4a:96:06:56:31:1e:08:9a:
                    ef:90:0f:11:b1:9a:ca:e0:09:f4:6b:f0:51:bc:32:
                    96:46:ff:f1:d5:db:61:f1:b7:4c:9b:c4:70:62:f0:
                    81:4a:2f:14:70:b4:f6:97:e0:28:87:a9:14:b2:79:
                    09:04:7a:67:89:b7:40:ee:26:08:78:e6:6d:61:2e:
                    ff:49:0a:55:50:60:34:4a:45
                Exponent: 65537 (0x10001)
        X509v3 extensions:
            X509v3 Basic Constraints: 
                CA:FALSE
            X509v3 Key Usage: critical
                Digital Signature, Non Repudiation, Key Encipherment
            Netscape Cert Type: 
                SSL Client, S/MIME
            Netscape Comment: 
                OpenSSL Generated Client Certificate
    Signature Algorithm: sha224WithRSAEncryption
        00:ae:6b:91:5f:d8:f1:28:ce:5d:60:d8:83:e4:a1:64:0e:ed:
        4c:79:0f:62:7d:3b:18:c8:e5:6d:89:a8:95:f8:04:24:8a:6e:
        ca:96:8d:2c:7a:26:86:dd:5a:21:a2:28:74:da:0c:6d:ba:a3:
        a3:42:20:93:9e:a5:1c:13:e4:4f:41:90:e0:65:44:66:23:12:
        db:c8:88:48:bc:78:ba:57:62:53:92:b3:b1:58:39:a6:2e:8c:
        5f:13:73:cf:c2:7d:31:04:d5:88:9a:fc:ca:6a:89:0d:0b:24:
        76:cf:b5:e8:a0:d5:8f:70:f9:72:64:c0:83:0f:1e:c1:e2:9e:
        bc:f6
-----BEGIN CERTIFICATE-----
MIICrTCCAhagAwIBAgICAXgwDQYJKoZIhvcNAQEOBQAwYDELMAkGA1UEBhMCVUcx
DzANBgNVBAcTBlRyb3BpYzEPMA0GA1UEChMGVXRvcGlhMRMwEQYDVQQLEwpSZWxh
eGF0aW9uMRowGAYDVQQDExF0aGUgbm9rZXl1c2FnZSBDQTAeFw0xMjAyMDkxODQ4
MTdaFw0yNTEwMTgxODQ4MTdaMHExCzAJBgNVBAYTAlVHMQ8wDQYDVQQHEwZUcm9w
aWMxDzANBgNVBAoTBlV0b3BpYTETMBEGA1UECxMKUmVsYXhhdGlvbjErMCkGA1UE
AxMibm9rZXl1c2FnZSBjbGllbnQgd2l0aCBzaGEyMjQgaGFzaDCBnzANBgkqhkiG
9w0BAQEFAAOBjQAwgYkCgYEAvhGij+7ePj1RTuKKQ64/OKQ7WsjcsKmy9ZEMDivh
Cd914Hxk6a7xNfQRo9uN1bVUO8OJSpYGVjEeCJrvkA8RsZrK4An0a/BRvDKWRv/x
1dth8bdMm8RwYvCBSi8UcLT2l+Aoh6kUsnkJBHpnibdA7iYIeOZtYS7/SQpVUGA0
SkUCAwEAAaNlMGMwCQYDVR0TBAIwADAOBgNVHQ8BAf8EBAMCBeAwEQYJYIZIAYb4
QgEBBAQDAgWgMDMGCWCGSAGG+EIBDQQmFiRPcGVuU1NMIEdlbmVyYXRlZCBDbGll
bnQgQ2VydGlmaWNhdGUwDQYJKoZIhvcNAQEOBQADgYEAAK5rkV/Y8SjOXWDYg+Sh
ZA7tTHkPYn07GMjlbYmolfgEJIpuypaNLHomht1aIaIodNoMbbqjo0Igk56lHBPk
T0GQ4GVEZiMS28iISLx4uldiU5KzsVg5pi6MXxNzz8J9MQTViJr8ymqJDQskds+1
6KDVj3D5cmTAgw8eweKevPY=
-----END CERTIFICATE-----
