Certificate:
    Data:
        Version: 3 (0x2)
        Serial Number: 382 (0x17e)
        Signature Algorithm: sha1WithRSAEncryption
        Issuer: C=UG, L=Tropic, O=Utopia, OU=Relaxation, CN=the nokeyusage CA
        Validity
            Not Before: Feb  9 18:48:19 2012 GMT
            Not After : Feb  8 18:48:19 2012 GMT
        Subject: C=UG, L=Tropic, O=Utopia, OU=Relaxation, CN=nokeyusage client expired
        Subject Public Key Info:
            Public Key Algorithm: rsaEncryption
                Public-Key: (1024 bit)
                Modulus:
                    00:e3:04:89:6f:e5:7f:89:e7:0f:2f:4f:ea:ca:82:
                    d1:b4:a9:d9:34:51:bd:4a:b4:13:bf:34:54:e2:2c:
                    23:52:79:fd:da:5f:20:f6:be:be:b9:7d:e9:f2:b4:
                    4b:76:30:0b:3c:93:7d:1e:59:04:6c:91:38:e4:c5:
                    cf:42:7b:c7:80:90:47:32:2b:29:a7:fe:56:14:49:
                    3c:83:10:88:ae:a3:39:0a:4f:77:7e:aa:3b:5c:02:
                    d1:40:13:c0:7b:0c:81:8a:4c:17:2c:c4:43:fc:3e:
                    fc:4f:45:e9:d4:0e:2b:08:4f:15:73:0d:81:e1:2e:
                    2e:8d:99:be:76:b8:5c:9c:17
                Exponent: 65537 (0x10001)
        X509v3 extensions:
            X509v3 Basic Constraints: 
                CA:FALSE
            X509v3 Key Usage: critical
                Digital Signature, Non Repudiation, Key Encipherment
            Netscape Cert Type: 
                SSL Client, S/MIME
            Netscape Comment: 
                OpenSSL Generated Client Certificate
    Signature Algorithm: sha1WithRSAEncryption
        79:0e:6a:2d:e3:d8:82:6c:59:09:94:d6:66:ab:4f:08:41:09:
        7b:9f:7d:31:86:26:5f:67:24:23:55:cf:49:bb:9b:17:64:04:
        71:7a:d5:ed:f0:35:4f:01:94:59:d8:32:01:e8:5c:65:63:12:
        9d:4e:68:a5:ad:cc:6d:10:0c:76:a6:38:20:fb:91:ea:ed:96:
        c2:6b:3e:a2:29:3f:e1:a7:cd:0c:12:4f:36:5d:74:49:a9:ac:
        9a:7d:65:c8:11:c7:0d:3f:43:9d:e4:a7:73:be:12:b1:65:83:
        04:22:16:06:a8:b6:74:6b:f9:ff:62:fa:a4:1e:60:70:a2:8e:
        18:a9
-----BEGIN CERTIFICATE-----
MIICpDCCAg2gAwIBAgICAX4wDQYJKoZIhvcNAQEFBQAwYDELMAkGA1UEBhMCVUcx
DzANBgNVBAcTBlRyb3BpYzEPMA0GA1UEChMGVXRvcGlhMRMwEQYDVQQLEwpSZWxh
eGF0aW9uMRowGAYDVQQDExF0aGUgbm9rZXl1c2FnZSBDQTAeFw0xMjAyMDkxODQ4
MTlaFw0xMjAyMDgxODQ4MTlaMGgxCzAJBgNVBAYTAlVHMQ8wDQYDVQQHEwZUcm9w
aWMxDzANBgNVBAoTBlV0b3BpYTETMBEGA1UECxMKUmVsYXhhdGlvbjEiMCAGA1UE
AxMZbm9rZXl1c2FnZSBjbGllbnQgZXhwaXJlZDCBnzANBgkqhkiG9w0BAQEFAAOB
jQAwgYkCgYEA4wSJb+V/iecPL0/qyoLRtKnZNFG9SrQTvzRU4iwjUnn92l8g9r6+
uX3p8rRLdjALPJN9HlkEbJE45MXPQnvHgJBHMispp/5WFEk8gxCIrqM5Ck93fqo7
XALRQBPAewyBikwXLMRD/D78T0Xp1A4rCE8Vcw2B4S4ujZm+drhcnBcCAwEAAaNl
MGMwCQYDVR0TBAIwADAOBgNVHQ8BAf8EBAMCBeAwEQYJYIZIAYb4QgEBBAQDAgWg
MDMGCWCGSAGG+EIBDQQmFiRPcGVuU1NMIEdlbmVyYXRlZCBDbGllbnQgQ2VydGlm
aWNhdGUwDQYJKoZIhvcNAQEFBQADgYEAeQ5qLePYgmxZCZTWZqtPCEEJe599MYYm
X2ckI1XPSbubF2QEcXrV7fA1TwGUWdgyAehcZWMSnU5opa3MbRAMdqY4IPuR6u2W
wms+oik/4afNDBJPNl10Samsmn1lyBHHDT9DneSnc74SsWWDBCIWBqi2dGv5/2L6
pB5gcKKOGKk=
-----END CERTIFICATE-----
